
build/platform/generic/firmware/fw_dynamic.elf:     file format elf64-littleriscv


Disassembly of section .text:

0000000000000000 <_fw_start>:
       0:	00050433          	add	s0,a0,zero
       4:	000584b3          	add	s1,a1,zero
       8:	00060933          	add	s2,a2,zero
       c:	654000ef          	jal	660 <fw_boot_hart>
      10:	882a                	mv	a6,a0
      12:	00040533          	add	a0,s0,zero
      16:	000485b3          	add	a1,s1,zero
      1a:	00090633          	add	a2,s2,zero
      1e:	58fd                	li	a7,-1
      20:	01180463          	beq	a6,a7,28 <_try_lottery>
      24:	2b051963          	bne	a0,a6,2d6 <_wait_for_boot_hart>

0000000000000028 <_try_lottery>:
      28:	00080817          	auipc	a6,0x80
      2c:	fd880813          	addi	a6,a6,-40 # 80000 <_fw_rw_start>
      30:	4885                	li	a7,1
      32:	0918282f          	amoswap.w	a6,a7,(a6)
      36:	2a081063          	bnez	a6,2d6 <_wait_for_boot_hart>
      3a:	4281                	li	t0,0
      3c:	00000317          	auipc	t1,0x0
      40:	fc430313          	addi	t1,t1,-60 # 0 <_fw_start>
      44:	405303b3          	sub	t2,t1,t0
      48:	00047297          	auipc	t0,0x47
      4c:	fb828293          	addi	t0,t0,-72 # 47000 <__rel_dyn_start>
      50:	0004a317          	auipc	t1,0x4a
      54:	ba830313          	addi	t1,t1,-1112 # 49bf8 <__rel_dyn_end>
      58:	02628263          	beq	t0,t1,7c <_relocate_done>
      5c:	0082bf03          	ld	t5,8(t0)
      60:	4e0d                	li	t3,3
      62:	01cf1a63          	bne	t5,t3,76 <_try_lottery+0x4e>
      66:	0002be03          	ld	t3,0(t0)
      6a:	0102bf03          	ld	t5,16(t0)
      6e:	9f1e                	add	t5,t5,t2
      70:	9e1e                	add	t3,t3,t2
      72:	01ee3023          	sd	t5,0(t3)
      76:	02e1                	addi	t0,t0,24
      78:	fe62c2e3          	blt	t0,t1,5c <_try_lottery+0x34>

000000000000007c <_relocate_done>:
      7c:	4081                	li	ra,0
      7e:	5a2000ef          	jal	620 <_reset_regs>
      82:	00083a17          	auipc	s4,0x83
      86:	f7ea0a13          	addi	s4,s4,-130 # 83000 <coldboot_done>
      8a:	00086a97          	auipc	s5,0x86
      8e:	08ea8a93          	addi	s5,s5,142 # 86118 <_bss_end>

0000000000000092 <_bss_zero>:
      92:	000a3023          	sd	zero,0(s4)
      96:	0a21                	addi	s4,s4,8
      98:	ff5a4de3          	blt	s4,s5,92 <_bss_zero>
      9c:	00000a17          	auipc	s4,0x0
      a0:	314a0a13          	addi	s4,s4,788 # 3b0 <_start_hang>
      a4:	305a1073          	csrw	mtvec,s4
      a8:	00087a17          	auipc	s4,0x87
      ac:	f58a0a13          	addi	s4,s4,-168 # 87000 <_fw_end>
      b0:	6a89                	lui	s5,0x2
      b2:	015a0133          	add	sp,s4,s5
      b6:	00050433          	add	s0,a0,zero
      ba:	000584b3          	add	s1,a1,zero
      be:	00060933          	add	s2,a2,zero
      c2:	000689b3          	add	s3,a3,zero
      c6:	00070a33          	add	s4,a4,zero
      ca:	5be000ef          	jal	688 <fw_save_info>
      ce:	00040533          	add	a0,s0,zero
      d2:	000485b3          	add	a1,s1,zero
      d6:	00090633          	add	a2,s2,zero
      da:	000986b3          	add	a3,s3,zero
      de:	000a0733          	add	a4,s4,zero
      e2:	00050433          	add	s0,a0,zero
      e6:	000584b3          	add	s1,a1,zero
      ea:	00060933          	add	s2,a2,zero
      ee:	000689b3          	add	s3,a3,zero
      f2:	00070a33          	add	s4,a4,zero
      f6:	3440c0ef          	jal	c43a <fw_platform_init>
      fa:	82aa                	mv	t0,a0
      fc:	00040533          	add	a0,s0,zero
     100:	000485b3          	add	a1,s1,zero
     104:	00090633          	add	a2,s2,zero
     108:	000986b3          	add	a3,s3,zero
     10c:	000a0733          	add	a4,s4,zero
     110:	8596                	mv	a1,t0
     112:	00081717          	auipc	a4,0x81
     116:	8ae70713          	addi	a4,a4,-1874 # 809c0 <platform>
     11a:	05076b83          	lwu	s7,80(a4)
     11e:	05476c03          	lwu	s8,84(a4)
     122:	05876c83          	lwu	s9,88(a4)
     126:	00087217          	auipc	tp,0x87
     12a:	eda20213          	addi	tp,tp,-294 # 87000 <_fw_end>
     12e:	038b87b3          	mul	a5,s7,s8
     132:	923e                	add	tp,tp,a5
     134:	00000d17          	auipc	s10,0x0
     138:	eccd0d13          	addi	s10,s10,-308 # 0 <_fw_start>
     13c:	41a20d33          	sub	s10,tp,s10
     140:	9266                	add	tp,tp,s9
     142:	00020e33          	add	t3,tp,zero
     146:	4385                	li	t2,1
     148:	4301                	li	t1,0

000000000000014a <_scratch_init>:
     14a:	000e0233          	add	tp,t3,zero
     14e:	41920233          	sub	tp,tp,s9
     152:	026c07b3          	mul	a5,s8,t1
     156:	40f20233          	sub	tp,tp,a5
     15a:	6785                	lui	a5,0x1
     15c:	40f20233          	sub	tp,tp,a5
     160:	00000717          	auipc	a4,0x0
     164:	ea070713          	addi	a4,a4,-352 # 0 <_fw_start>
     168:	40ee07b3          	sub	a5,t3,a4
     16c:	00e23023          	sd	a4,0(tp) # 0 <_fw_start>
     170:	00f23423          	sd	a5,8(tp) # 8 <_fw_start+0x8>
     174:	00080797          	auipc	a5,0x80
     178:	e8c78793          	addi	a5,a5,-372 # 80000 <_fw_rw_start>
     17c:	8f99                	sub	a5,a5,a4
     17e:	00f23823          	sd	a5,16(tp) # 10 <_fw_start+0x10>
     182:	01a23c23          	sd	s10,24(tp) # 18 <_fw_start+0x18>
     186:	03923023          	sd	s9,32(tp) # 20 <_fw_start+0x20>
     18a:	00050433          	add	s0,a0,zero
     18e:	000584b3          	add	s1,a1,zero
     192:	00060933          	add	s2,a2,zero
     196:	53a000ef          	jal	6d0 <fw_next_arg1>
     19a:	02a23423          	sd	a0,40(tp) # 28 <_try_lottery>
     19e:	00040533          	add	a0,s0,zero
     1a2:	000485b3          	add	a1,s1,zero
     1a6:	00090633          	add	a2,s2,zero
     1aa:	00050433          	add	s0,a0,zero
     1ae:	000584b3          	add	s1,a1,zero
     1b2:	00060933          	add	s2,a2,zero
     1b6:	52a000ef          	jal	6e0 <fw_next_addr>
     1ba:	02a23823          	sd	a0,48(tp) # 30 <_try_lottery+0x8>
     1be:	00040533          	add	a0,s0,zero
     1c2:	000485b3          	add	a1,s1,zero
     1c6:	00090633          	add	a2,s2,zero
     1ca:	00050433          	add	s0,a0,zero
     1ce:	000584b3          	add	s1,a1,zero
     1d2:	00060933          	add	s2,a2,zero
     1d6:	51a000ef          	jal	6f0 <fw_next_mode>
     1da:	02a23c23          	sd	a0,56(tp) # 38 <_try_lottery+0x10>
     1de:	00040533          	add	a0,s0,zero
     1e2:	000485b3          	add	a1,s1,zero
     1e6:	00090633          	add	a2,s2,zero
     1ea:	00000717          	auipc	a4,0x0
     1ee:	10a70713          	addi	a4,a4,266 # 2f4 <_start_warm>
     1f2:	04e23023          	sd	a4,64(tp) # 40 <_try_lottery+0x18>
     1f6:	00080717          	auipc	a4,0x80
     1fa:	7ca70713          	addi	a4,a4,1994 # 809c0 <platform>
     1fe:	04e23423          	sd	a4,72(tp) # 48 <_try_lottery+0x20>
     202:	00000717          	auipc	a4,0x0
     206:	17e70713          	addi	a4,a4,382 # 380 <_hartid_to_scratch>
     20a:	04e23823          	sd	a4,80(tp) # 50 <_try_lottery+0x28>
     20e:	04023c23          	sd	zero,88(tp) # 58 <_try_lottery+0x30>
     212:	06023023          	sd	zero,96(tp) # 60 <_try_lottery+0x38>
     216:	00050433          	add	s0,a0,zero
     21a:	000584b3          	add	s1,a1,zero
     21e:	00060933          	add	s2,a2,zero
     222:	4de000ef          	jal	700 <fw_options>
     226:	06a23423          	sd	a0,104(tp) # 68 <_try_lottery+0x40>
     22a:	00040533          	add	a0,s0,zero
     22e:	000485b3          	add	a1,s1,zero
     232:	00090633          	add	a2,s2,zero
     236:	931e                	add	t1,t1,t2
     238:	f17349e3          	blt	t1,s7,14a <_scratch_init>
     23c:	c1d9                	beqz	a1,2c2 <_fdt_reloc_done>
     23e:	0ff00713          	li	a4,255
     242:	00050433          	add	s0,a0,zero
     246:	000584b3          	add	s1,a1,zero
     24a:	00060933          	add	s2,a2,zero
     24e:	482000ef          	jal	6d0 <fw_next_arg1>
     252:	00050333          	add	t1,a0,zero
     256:	00040533          	add	a0,s0,zero
     25a:	000485b3          	add	a1,s1,zero
     25e:	00090633          	add	a2,s2,zero
     262:	06030063          	beqz	t1,2c2 <_fdt_reloc_done>
     266:	04b30e63          	beq	t1,a1,2c2 <_fdt_reloc_done>
     26a:	000582b3          	add	t0,a1,zero
     26e:	0042e383          	lwu	t2,4(t0)
     272:	00038e33          	add	t3,t2,zero
     276:	010e5e13          	srli	t3,t3,0x10
     27a:	00ee7e33          	and	t3,t3,a4
     27e:	0e22                	slli	t3,t3,0x8
     280:	00038eb3          	add	t4,t2,zero
     284:	008ede93          	srli	t4,t4,0x8
     288:	00eefeb3          	and	t4,t4,a4
     28c:	0ec2                	slli	t4,t4,0x10
     28e:	00038f33          	add	t5,t2,zero
     292:	00ef7f33          	and	t5,t5,a4
     296:	0f62                	slli	t5,t5,0x18
     298:	0183d393          	srli	t2,t2,0x18
     29c:	00e3f3b3          	and	t2,t2,a4
     2a0:	01c3e3b3          	or	t2,t2,t3
     2a4:	01d3e3b3          	or	t2,t2,t4
     2a8:	01e3e3b3          	or	t2,t2,t5
     2ac:	939a                	add	t2,t2,t1
     2ae:	00735a63          	bge	t1,t2,2c2 <_fdt_reloc_done>

00000000000002b2 <_fdt_reloc_again>:
     2b2:	0002be03          	ld	t3,0(t0)
     2b6:	01c33023          	sd	t3,0(t1)
     2ba:	02a1                	addi	t0,t0,8
     2bc:	0321                	addi	t1,t1,8
     2be:	fe734ae3          	blt	t1,t2,2b2 <_fdt_reloc_again>

00000000000002c2 <_fdt_reloc_done>:
     2c2:	4289                	li	t0,2
     2c4:	00080317          	auipc	t1,0x80
     2c8:	d3c30313          	addi	t1,t1,-708 # 80000 <_fw_rw_start>
     2cc:	0330000f          	fence	rw,rw
     2d0:	00533023          	sd	t0,0(t1)
     2d4:	a005                	j	2f4 <_start_warm>

00000000000002d6 <_wait_for_boot_hart>:
     2d6:	4289                	li	t0,2
     2d8:	00080317          	auipc	t1,0x80
     2dc:	d2830313          	addi	t1,t1,-728 # 80000 <_fw_rw_start>
     2e0:	00033303          	ld	t1,0(t1)
     2e4:	0203c3b3          	div	t2,t2,zero
     2e8:	0203c3b3          	div	t2,t2,zero
     2ec:	0203c3b3          	div	t2,t2,zero
     2f0:	fe6293e3          	bne	t0,t1,2d6 <_wait_for_boot_hart>

00000000000002f4 <_start_warm>:
     2f4:	4081                	li	ra,0
     2f6:	32a000ef          	jal	620 <_reset_regs>
     2fa:	30401073          	csrw	mie,zero
     2fe:	00080717          	auipc	a4,0x80
     302:	6c270713          	addi	a4,a4,1730 # 809c0 <platform>
     306:	05076b83          	lwu	s7,80(a4)
     30a:	05476c03          	lwu	s8,84(a4)
     30e:	07073c83          	ld	s9,112(a4)
     312:	f1402b73          	csrr	s6,mhartid
     316:	000c8d63          	beqz	s9,330 <_start_warm+0x3c>
     31a:	4701                	li	a4,0
     31c:	000ce783          	lwu	a5,0(s9)
     320:	01678663          	beq	a5,s6,32c <_start_warm+0x38>
     324:	0c91                	addi	s9,s9,4
     326:	0705                	addi	a4,a4,1
     328:	ff774ae3          	blt	a4,s7,31c <_start_warm+0x28>
     32c:	00070b33          	add	s6,a4,zero
     330:	097b5063          	bge	s6,s7,3b0 <_start_hang>
     334:	00087217          	auipc	tp,0x87
     338:	ccc20213          	addi	tp,tp,-820 # 87000 <_fw_end>
     33c:	038b87b3          	mul	a5,s7,s8
     340:	923e                	add	tp,tp,a5
     342:	036c07b3          	mul	a5,s8,s6
     346:	40f20233          	sub	tp,tp,a5
     34a:	6785                	lui	a5,0x1
     34c:	40f20233          	sub	tp,tp,a5
     350:	34021073          	csrw	mscratch,tp
     354:	00020133          	add	sp,tp,zero
     358:	00000717          	auipc	a4,0x0
     35c:	06870713          	addi	a4,a4,104 # 3c0 <_trap_handler>
     360:	301027f3          	csrr	a5,misa
     364:	839d                	srli	a5,a5,0x7
     366:	8b85                	andi	a5,a5,1
     368:	c789                	beqz	a5,372 <_skip_trap_handler_hyp>
     36a:	00000717          	auipc	a4,0x0
     36e:	17e70713          	addi	a4,a4,382 # 4e8 <_trap_handler_hyp>

0000000000000372 <_skip_trap_handler_hyp>:
     372:	30571073          	csrw	mtvec,a4
     376:	34002573          	csrr	a0,mscratch
     37a:	2b8010ef          	jal	1632 <sbi_init>
     37e:	a80d                	j	3b0 <_start_hang>

0000000000000380 <_hartid_to_scratch>:
     380:	00080397          	auipc	t2,0x80
     384:	64038393          	addi	t2,t2,1600 # 809c0 <platform>
     388:	0543e283          	lwu	t0,84(t2)
     38c:	0503e383          	lwu	t2,80(t2)
     390:	40b383b3          	sub	t2,t2,a1
     394:	025383b3          	mul	t2,t2,t0
     398:	00087317          	auipc	t1,0x87
     39c:	c6830313          	addi	t1,t1,-920 # 87000 <_fw_end>
     3a0:	931e                	add	t1,t1,t2
     3a2:	6385                	lui	t2,0x1
     3a4:	40730533          	sub	a0,t1,t2
     3a8:	8082                	ret
     3aa:	0001                	nop
     3ac:	00000013          	nop

00000000000003b0 <_start_hang>:
     3b0:	10500073          	wfi
     3b4:	bff5                	j	3b0 <_start_hang>
     3b6:	0001                	nop
     3b8:	852e                	mv	a0,a1
     3ba:	8082                	ret
     3bc:	00000013          	nop

00000000000003c0 <_trap_handler>:
     3c0:	34021273          	csrrw	tp,mscratch,tp
     3c4:	06523023          	sd	t0,96(tp) # 60 <_try_lottery+0x38>
     3c8:	300022f3          	csrr	t0,mstatus
     3cc:	00b2d293          	srli	t0,t0,0xb
     3d0:	0032f293          	andi	t0,t0,3
     3d4:	0032a293          	slti	t0,t0,3
     3d8:	12fd                	addi	t0,t0,-1
     3da:	00414133          	xor	sp,sp,tp
     3de:	0022f2b3          	and	t0,t0,sp
     3e2:	00414133          	xor	sp,sp,tp
     3e6:	005242b3          	xor	t0,tp,t0
     3ea:	ec22b423          	sd	sp,-312(t0)
     3ee:	eb828113          	addi	sp,t0,-328
     3f2:	06023283          	ld	t0,96(tp) # 60 <_try_lottery+0x38>
     3f6:	f416                	sd	t0,40(sp)
     3f8:	34021273          	csrrw	tp,mscratch,tp
     3fc:	341022f3          	csrr	t0,mepc
     400:	e216                	sd	t0,256(sp)
     402:	300022f3          	csrr	t0,mstatus
     406:	e616                	sd	t0,264(sp)
     408:	ea02                	sd	zero,272(sp)
     40a:	e002                	sd	zero,0(sp)
     40c:	e406                	sd	ra,8(sp)
     40e:	ec0e                	sd	gp,24(sp)
     410:	f012                	sd	tp,32(sp)
     412:	f81a                	sd	t1,48(sp)
     414:	fc1e                	sd	t2,56(sp)
     416:	e0a2                	sd	s0,64(sp)
     418:	e4a6                	sd	s1,72(sp)
     41a:	e8aa                	sd	a0,80(sp)
     41c:	ecae                	sd	a1,88(sp)
     41e:	f0b2                	sd	a2,96(sp)
     420:	f4b6                	sd	a3,104(sp)
     422:	f8ba                	sd	a4,112(sp)
     424:	fcbe                	sd	a5,120(sp)
     426:	e142                	sd	a6,128(sp)
     428:	e546                	sd	a7,136(sp)
     42a:	e94a                	sd	s2,144(sp)
     42c:	ed4e                	sd	s3,152(sp)
     42e:	f152                	sd	s4,160(sp)
     430:	f556                	sd	s5,168(sp)
     432:	f95a                	sd	s6,176(sp)
     434:	fd5e                	sd	s7,184(sp)
     436:	e1e2                	sd	s8,192(sp)
     438:	e5e6                	sd	s9,200(sp)
     43a:	e9ea                	sd	s10,208(sp)
     43c:	edee                	sd	s11,216(sp)
     43e:	f1f2                	sd	t3,224(sp)
     440:	f5f6                	sd	t4,232(sp)
     442:	f9fa                	sd	t5,240(sp)
     444:	fdfe                	sd	t6,248(sp)
     446:	342022f3          	csrr	t0,mcause
     44a:	ee16                	sd	t0,280(sp)
     44c:	343022f3          	csrr	t0,mtval
     450:	f216                	sd	t0,288(sp)
     452:	f602                	sd	zero,296(sp)
     454:	fa02                	sd	zero,304(sp)
     456:	4281                	li	t0,0
     458:	fe16                	sd	t0,312(sp)
     45a:	00010533          	add	a0,sp,zero
     45e:	3b60a0ef          	jal	a814 <sbi_trap_handler>
     462:	00853083          	ld	ra,8(a0)
     466:	01053103          	ld	sp,16(a0)
     46a:	01853183          	ld	gp,24(a0)
     46e:	02053203          	ld	tp,32(a0)
     472:	03053303          	ld	t1,48(a0)
     476:	03853383          	ld	t2,56(a0)
     47a:	6120                	ld	s0,64(a0)
     47c:	6524                	ld	s1,72(a0)
     47e:	6d2c                	ld	a1,88(a0)
     480:	7130                	ld	a2,96(a0)
     482:	7534                	ld	a3,104(a0)
     484:	7938                	ld	a4,112(a0)
     486:	7d3c                	ld	a5,120(a0)
     488:	08053803          	ld	a6,128(a0)
     48c:	08853883          	ld	a7,136(a0)
     490:	09053903          	ld	s2,144(a0)
     494:	09853983          	ld	s3,152(a0)
     498:	0a053a03          	ld	s4,160(a0)
     49c:	0a853a83          	ld	s5,168(a0)
     4a0:	0b053b03          	ld	s6,176(a0)
     4a4:	0b853b83          	ld	s7,184(a0)
     4a8:	0c053c03          	ld	s8,192(a0)
     4ac:	0c853c83          	ld	s9,200(a0)
     4b0:	0d053d03          	ld	s10,208(a0)
     4b4:	0d853d83          	ld	s11,216(a0)
     4b8:	0e053e03          	ld	t3,224(a0)
     4bc:	0e853e83          	ld	t4,232(a0)
     4c0:	0f053f03          	ld	t5,240(a0)
     4c4:	0f853f83          	ld	t6,248(a0)
     4c8:	10053283          	ld	t0,256(a0)
     4cc:	34129073          	csrw	mepc,t0
     4d0:	10853283          	ld	t0,264(a0)
     4d4:	30029073          	csrw	mstatus,t0
     4d8:	02853283          	ld	t0,40(a0)
     4dc:	6928                	ld	a0,80(a0)
     4de:	30200073          	mret
     4e2:	0001                	nop
     4e4:	00000013          	nop

00000000000004e8 <_trap_handler_hyp>:
     4e8:	34021273          	csrrw	tp,mscratch,tp
     4ec:	06523023          	sd	t0,96(tp) # 60 <_try_lottery+0x38>
     4f0:	300022f3          	csrr	t0,mstatus
     4f4:	00b2d293          	srli	t0,t0,0xb
     4f8:	0032f293          	andi	t0,t0,3
     4fc:	0032a293          	slti	t0,t0,3
     500:	12fd                	addi	t0,t0,-1
     502:	00414133          	xor	sp,sp,tp
     506:	0022f2b3          	and	t0,t0,sp
     50a:	00414133          	xor	sp,sp,tp
     50e:	005242b3          	xor	t0,tp,t0
     512:	ec22b423          	sd	sp,-312(t0)
     516:	eb828113          	addi	sp,t0,-328
     51a:	06023283          	ld	t0,96(tp) # 60 <_try_lottery+0x38>
     51e:	f416                	sd	t0,40(sp)
     520:	34021273          	csrrw	tp,mscratch,tp
     524:	341022f3          	csrr	t0,mepc
     528:	e216                	sd	t0,256(sp)
     52a:	300022f3          	csrr	t0,mstatus
     52e:	e616                	sd	t0,264(sp)
     530:	ea02                	sd	zero,272(sp)
     532:	e002                	sd	zero,0(sp)
     534:	e406                	sd	ra,8(sp)
     536:	ec0e                	sd	gp,24(sp)
     538:	f012                	sd	tp,32(sp)
     53a:	f81a                	sd	t1,48(sp)
     53c:	fc1e                	sd	t2,56(sp)
     53e:	e0a2                	sd	s0,64(sp)
     540:	e4a6                	sd	s1,72(sp)
     542:	e8aa                	sd	a0,80(sp)
     544:	ecae                	sd	a1,88(sp)
     546:	f0b2                	sd	a2,96(sp)
     548:	f4b6                	sd	a3,104(sp)
     54a:	f8ba                	sd	a4,112(sp)
     54c:	fcbe                	sd	a5,120(sp)
     54e:	e142                	sd	a6,128(sp)
     550:	e546                	sd	a7,136(sp)
     552:	e94a                	sd	s2,144(sp)
     554:	ed4e                	sd	s3,152(sp)
     556:	f152                	sd	s4,160(sp)
     558:	f556                	sd	s5,168(sp)
     55a:	f95a                	sd	s6,176(sp)
     55c:	fd5e                	sd	s7,184(sp)
     55e:	e1e2                	sd	s8,192(sp)
     560:	e5e6                	sd	s9,200(sp)
     562:	e9ea                	sd	s10,208(sp)
     564:	edee                	sd	s11,216(sp)
     566:	f1f2                	sd	t3,224(sp)
     568:	f5f6                	sd	t4,232(sp)
     56a:	f9fa                	sd	t5,240(sp)
     56c:	fdfe                	sd	t6,248(sp)
     56e:	342022f3          	csrr	t0,mcause
     572:	ee16                	sd	t0,280(sp)
     574:	343022f3          	csrr	t0,mtval
     578:	f216                	sd	t0,288(sp)
     57a:	34b022f3          	csrr	t0,0x34b
     57e:	f616                	sd	t0,296(sp)
     580:	34a022f3          	csrr	t0,0x34a
     584:	fa16                	sd	t0,304(sp)
     586:	300022f3          	csrr	t0,mstatus
     58a:	0262d293          	srli	t0,t0,0x26
     58e:	0012f293          	andi	t0,t0,1
     592:	fe16                	sd	t0,312(sp)
     594:	00010533          	add	a0,sp,zero
     598:	27c0a0ef          	jal	a814 <sbi_trap_handler>
     59c:	00853083          	ld	ra,8(a0)
     5a0:	01053103          	ld	sp,16(a0)
     5a4:	01853183          	ld	gp,24(a0)
     5a8:	02053203          	ld	tp,32(a0)
     5ac:	03053303          	ld	t1,48(a0)
     5b0:	03853383          	ld	t2,56(a0)
     5b4:	6120                	ld	s0,64(a0)
     5b6:	6524                	ld	s1,72(a0)
     5b8:	6d2c                	ld	a1,88(a0)
     5ba:	7130                	ld	a2,96(a0)
     5bc:	7534                	ld	a3,104(a0)
     5be:	7938                	ld	a4,112(a0)
     5c0:	7d3c                	ld	a5,120(a0)
     5c2:	08053803          	ld	a6,128(a0)
     5c6:	08853883          	ld	a7,136(a0)
     5ca:	09053903          	ld	s2,144(a0)
     5ce:	09853983          	ld	s3,152(a0)
     5d2:	0a053a03          	ld	s4,160(a0)
     5d6:	0a853a83          	ld	s5,168(a0)
     5da:	0b053b03          	ld	s6,176(a0)
     5de:	0b853b83          	ld	s7,184(a0)
     5e2:	0c053c03          	ld	s8,192(a0)
     5e6:	0c853c83          	ld	s9,200(a0)
     5ea:	0d053d03          	ld	s10,208(a0)
     5ee:	0d853d83          	ld	s11,216(a0)
     5f2:	0e053e03          	ld	t3,224(a0)
     5f6:	0e853e83          	ld	t4,232(a0)
     5fa:	0f053f03          	ld	t5,240(a0)
     5fe:	0f853f83          	ld	t6,248(a0)
     602:	10053283          	ld	t0,256(a0)
     606:	34129073          	csrw	mepc,t0
     60a:	10853283          	ld	t0,264(a0)
     60e:	30029073          	csrw	mstatus,t0
     612:	02853283          	ld	t0,40(a0)
     616:	6928                	ld	a0,80(a0)
     618:	30200073          	mret
     61c:	00000013          	nop

0000000000000620 <_reset_regs>:
     620:	0000100f          	fence.i
     624:	4101                	li	sp,0
     626:	4181                	li	gp,0
     628:	4201                	li	tp,0
     62a:	4281                	li	t0,0
     62c:	4301                	li	t1,0
     62e:	4381                	li	t2,0
     630:	4401                	li	s0,0
     632:	4481                	li	s1,0
     634:	4781                	li	a5,0
     636:	4801                	li	a6,0
     638:	4881                	li	a7,0
     63a:	4901                	li	s2,0
     63c:	4981                	li	s3,0
     63e:	4a01                	li	s4,0
     640:	4a81                	li	s5,0
     642:	4b01                	li	s6,0
     644:	4b81                	li	s7,0
     646:	4c01                	li	s8,0
     648:	4c81                	li	s9,0
     64a:	4d01                	li	s10,0
     64c:	4d81                	li	s11,0
     64e:	4e01                	li	t3,0
     650:	4e81                	li	t4,0
     652:	4f01                	li	t5,0
     654:	4f81                	li	t6,0
     656:	34005073          	csrwi	mscratch,0
     65a:	8082                	ret
     65c:	00000013          	nop

0000000000000660 <fw_boot_hart>:
     660:	494255b7          	lui	a1,0x49425
     664:	34f5859b          	addiw	a1,a1,847 # 4942534f <_fw_end+0x4939e34f>
     668:	6208                	ld	a0,0(a2)
     66a:	d4b513e3          	bne	a0,a1,3b0 <_start_hang>
     66e:	4589                	li	a1,2
     670:	6608                	ld	a0,8(a2)
     672:	d2a5cfe3          	blt	a1,a0,3b0 <_start_hang>
     676:	4589                	li	a1,2
     678:	00b54463          	blt	a0,a1,680 <fw_boot_hart+0x20>
     67c:	7608                	ld	a0,40(a2)
     67e:	8082                	ret
     680:	557d                	li	a0,-1
     682:	8082                	ret
     684:	00000013          	nop

0000000000000688 <fw_save_info>:
     688:	00080717          	auipc	a4,0x80
     68c:	98070713          	addi	a4,a4,-1664 # 80008 <_dynamic_next_arg1>
     690:	e30c                	sd	a1,0(a4)
     692:	00080717          	auipc	a4,0x80
     696:	97e70713          	addi	a4,a4,-1666 # 80010 <_dynamic_next_addr>
     69a:	6a14                	ld	a3,16(a2)
     69c:	e314                	sd	a3,0(a4)
     69e:	00080717          	auipc	a4,0x80
     6a2:	97a70713          	addi	a4,a4,-1670 # 80018 <_dynamic_next_mode>
     6a6:	6e14                	ld	a3,24(a2)
     6a8:	e314                	sd	a3,0(a4)
     6aa:	00080717          	auipc	a4,0x80
     6ae:	97670713          	addi	a4,a4,-1674 # 80020 <_dynamic_options>
     6b2:	7214                	ld	a3,32(a2)
     6b4:	e314                	sd	a3,0(a4)
     6b6:	4709                	li	a4,2
     6b8:	6614                	ld	a3,8(a2)
     6ba:	00e6c863          	blt	a3,a4,6ca <fw_save_info+0x42>
     6be:	00080717          	auipc	a4,0x80
     6c2:	96a70713          	addi	a4,a4,-1686 # 80028 <_dynamic_boot_hart>
     6c6:	7614                	ld	a3,40(a2)
     6c8:	e314                	sd	a3,0(a4)
     6ca:	8082                	ret
     6cc:	00000013          	nop

00000000000006d0 <fw_next_arg1>:
     6d0:	00080517          	auipc	a0,0x80
     6d4:	93850513          	addi	a0,a0,-1736 # 80008 <_dynamic_next_arg1>
     6d8:	6108                	ld	a0,0(a0)
     6da:	8082                	ret
     6dc:	00000013          	nop

00000000000006e0 <fw_next_addr>:
     6e0:	00080517          	auipc	a0,0x80
     6e4:	93050513          	addi	a0,a0,-1744 # 80010 <_dynamic_next_addr>
     6e8:	6108                	ld	a0,0(a0)
     6ea:	8082                	ret
     6ec:	00000013          	nop

00000000000006f0 <fw_next_mode>:
     6f0:	00080517          	auipc	a0,0x80
     6f4:	92850513          	addi	a0,a0,-1752 # 80018 <_dynamic_next_mode>
     6f8:	6108                	ld	a0,0(a0)
     6fa:	8082                	ret
     6fc:	00000013          	nop

0000000000000700 <fw_options>:
     700:	00080517          	auipc	a0,0x80
     704:	92050513          	addi	a0,a0,-1760 # 80020 <_dynamic_options>
     708:	6108                	ld	a0,0(a0)
     70a:	8082                	ret
     70c:	0000                	unimp
	...

0000000000000710 <_thead_tlb_flush_fixup_trap_handler>:
     710:	12500073          	sfence.vma	zero,t0
     714:	cadff06f          	j	3c0 <_trap_handler>
	...

0000000000000720 <memcpy>:
     720:	4610706f          	j	8380 <sbi_memcpy>
     724:	00000013          	nop

0000000000000728 <memset>:
     728:	4070706f          	j	832e <sbi_memset>
     72c:	00000013          	nop

0000000000000730 <memmove>:
     730:	4b10706f          	j	83e0 <sbi_memmove>
     734:	00000013          	nop

0000000000000738 <memcmp>:
     738:	57b0706f          	j	84b2 <sbi_memcmp>

000000000000073c <sbi_popcount>:
     73c:	7179                	addi	sp,sp,-48
     73e:	f422                	sd	s0,40(sp)
     740:	1800                	addi	s0,sp,48
     742:	fca43c23          	sd	a0,-40(s0)
     746:	fe043423          	sd	zero,-24(s0)
     74a:	a831                	j	766 <sbi_popcount+0x2a>
     74c:	fd843783          	ld	a5,-40(s0)
     750:	17fd                	addi	a5,a5,-1 # fff <init_coldboot+0xc3>
     752:	fd843703          	ld	a4,-40(s0)
     756:	8ff9                	and	a5,a5,a4
     758:	fcf43c23          	sd	a5,-40(s0)
     75c:	fe843783          	ld	a5,-24(s0)
     760:	0785                	addi	a5,a5,1
     762:	fef43423          	sd	a5,-24(s0)
     766:	fd843783          	ld	a5,-40(s0)
     76a:	f3ed                	bnez	a5,74c <sbi_popcount+0x10>
     76c:	fe843783          	ld	a5,-24(s0)
     770:	853e                	mv	a0,a5
     772:	7422                	ld	s0,40(sp)
     774:	6145                	addi	sp,sp,48
     776:	8082                	ret

0000000000000778 <sbi_heap_free_space>:
     778:	1141                	addi	sp,sp,-16
     77a:	e406                	sd	ra,8(sp)
     77c:	e022                	sd	s0,0(sp)
     77e:	0800                	addi	s0,sp,16
     780:	00082517          	auipc	a0,0x82
     784:	0e853503          	ld	a0,232(a0) # 82868 <_GLOBAL_OFFSET_TABLE_+0x108>
     788:	0d01b0ef          	jal	1b858 <sbi_heap_free_space_from>
     78c:	87aa                	mv	a5,a0
     78e:	853e                	mv	a0,a5
     790:	60a2                	ld	ra,8(sp)
     792:	6402                	ld	s0,0(sp)
     794:	0141                	addi	sp,sp,16
     796:	8082                	ret

0000000000000798 <sbi_heap_used_space>:
     798:	1141                	addi	sp,sp,-16
     79a:	e406                	sd	ra,8(sp)
     79c:	e022                	sd	s0,0(sp)
     79e:	0800                	addi	s0,sp,16
     7a0:	00082517          	auipc	a0,0x82
     7a4:	0c853503          	ld	a0,200(a0) # 82868 <_GLOBAL_OFFSET_TABLE_+0x108>
     7a8:	1281b0ef          	jal	1b8d0 <sbi_heap_used_space_from>
     7ac:	87aa                	mv	a5,a0
     7ae:	853e                	mv	a0,a5
     7b0:	60a2                	ld	ra,8(sp)
     7b2:	6402                	ld	s0,0(sp)
     7b4:	0141                	addi	sp,sp,16
     7b6:	8082                	ret

00000000000007b8 <sbi_heap_reserved_space>:
     7b8:	1141                	addi	sp,sp,-16
     7ba:	e406                	sd	ra,8(sp)
     7bc:	e022                	sd	s0,0(sp)
     7be:	0800                	addi	s0,sp,16
     7c0:	00082517          	auipc	a0,0x82
     7c4:	0a853503          	ld	a0,168(a0) # 82868 <_GLOBAL_OFFSET_TABLE_+0x108>
     7c8:	13c1b0ef          	jal	1b904 <sbi_heap_reserved_space_from>
     7cc:	87aa                	mv	a5,a0
     7ce:	853e                	mv	a0,a5
     7d0:	60a2                	ld	ra,8(sp)
     7d2:	6402                	ld	s0,0(sp)
     7d4:	0141                	addi	sp,sp,16
     7d6:	8082                	ret

00000000000007d8 <sbi_platform_name>:
     7d8:	1101                	addi	sp,sp,-32
     7da:	ec22                	sd	s0,24(sp)
     7dc:	1000                	addi	s0,sp,32
     7de:	fea43423          	sd	a0,-24(s0)
     7e2:	fe843783          	ld	a5,-24(s0)
     7e6:	c789                	beqz	a5,7f0 <sbi_platform_name+0x18>
     7e8:	fe843783          	ld	a5,-24(s0)
     7ec:	07a1                	addi	a5,a5,8
     7ee:	a029                	j	7f8 <sbi_platform_name+0x20>
     7f0:	00034797          	auipc	a5,0x34
     7f4:	81078793          	addi	a5,a5,-2032 # 34000 <_PROCEDURE_LINKAGE_TABLE_+0x3c0>
     7f8:	853e                	mv	a0,a5
     7fa:	6462                	ld	s0,24(sp)
     7fc:	6105                	addi	sp,sp,32
     7fe:	8082                	ret

0000000000000800 <sbi_platform_hart_count>:
     800:	1101                	addi	sp,sp,-32
     802:	ec22                	sd	s0,24(sp)
     804:	1000                	addi	s0,sp,32
     806:	fea43423          	sd	a0,-24(s0)
     80a:	fe843783          	ld	a5,-24(s0)
     80e:	c789                	beqz	a5,818 <sbi_platform_hart_count+0x18>
     810:	fe843783          	ld	a5,-24(s0)
     814:	4bbc                	lw	a5,80(a5)
     816:	a011                	j	81a <sbi_platform_hart_count+0x1a>
     818:	4781                	li	a5,0
     81a:	853e                	mv	a0,a5
     81c:	6462                	ld	s0,24(sp)
     81e:	6105                	addi	sp,sp,32
     820:	8082                	ret

0000000000000822 <sbi_platform_cold_boot_allowed>:
     822:	1101                	addi	sp,sp,-32
     824:	ec06                	sd	ra,24(sp)
     826:	e822                	sd	s0,16(sp)
     828:	1000                	addi	s0,sp,32
     82a:	fea43423          	sd	a0,-24(s0)
     82e:	87ae                	mv	a5,a1
     830:	fef42223          	sw	a5,-28(s0)
     834:	fe843783          	ld	a5,-24(s0)
     838:	c385                	beqz	a5,858 <sbi_platform_cold_boot_allowed+0x36>
     83a:	fe843783          	ld	a5,-24(s0)
     83e:	73bc                	ld	a5,96(a5)
     840:	639c                	ld	a5,0(a5)
     842:	cb99                	beqz	a5,858 <sbi_platform_cold_boot_allowed+0x36>
     844:	fe843783          	ld	a5,-24(s0)
     848:	73bc                	ld	a5,96(a5)
     84a:	639c                	ld	a5,0(a5)
     84c:	fe442703          	lw	a4,-28(s0)
     850:	853a                	mv	a0,a4
     852:	9782                	jalr	a5
     854:	87aa                	mv	a5,a0
     856:	a011                	j	85a <sbi_platform_cold_boot_allowed+0x38>
     858:	4785                	li	a5,1
     85a:	853e                	mv	a0,a5
     85c:	60e2                	ld	ra,24(sp)
     85e:	6442                	ld	s0,16(sp)
     860:	6105                	addi	sp,sp,32
     862:	8082                	ret

0000000000000864 <sbi_platform_nascent_init>:
     864:	1101                	addi	sp,sp,-32
     866:	ec06                	sd	ra,24(sp)
     868:	e822                	sd	s0,16(sp)
     86a:	1000                	addi	s0,sp,32
     86c:	fea43423          	sd	a0,-24(s0)
     870:	fe843783          	ld	a5,-24(s0)
     874:	cf89                	beqz	a5,88e <sbi_platform_nascent_init+0x2a>
     876:	fe843783          	ld	a5,-24(s0)
     87a:	73bc                	ld	a5,96(a5)
     87c:	679c                	ld	a5,8(a5)
     87e:	cb81                	beqz	a5,88e <sbi_platform_nascent_init+0x2a>
     880:	fe843783          	ld	a5,-24(s0)
     884:	73bc                	ld	a5,96(a5)
     886:	679c                	ld	a5,8(a5)
     888:	9782                	jalr	a5
     88a:	87aa                	mv	a5,a0
     88c:	a011                	j	890 <sbi_platform_nascent_init+0x2c>
     88e:	4781                	li	a5,0
     890:	853e                	mv	a0,a5
     892:	60e2                	ld	ra,24(sp)
     894:	6442                	ld	s0,16(sp)
     896:	6105                	addi	sp,sp,32
     898:	8082                	ret

000000000000089a <sbi_platform_early_init>:
     89a:	1101                	addi	sp,sp,-32
     89c:	ec06                	sd	ra,24(sp)
     89e:	e822                	sd	s0,16(sp)
     8a0:	1000                	addi	s0,sp,32
     8a2:	fea43423          	sd	a0,-24(s0)
     8a6:	87ae                	mv	a5,a1
     8a8:	fef42223          	sw	a5,-28(s0)
     8ac:	fe843783          	ld	a5,-24(s0)
     8b0:	c385                	beqz	a5,8d0 <sbi_platform_early_init+0x36>
     8b2:	fe843783          	ld	a5,-24(s0)
     8b6:	73bc                	ld	a5,96(a5)
     8b8:	6b9c                	ld	a5,16(a5)
     8ba:	cb99                	beqz	a5,8d0 <sbi_platform_early_init+0x36>
     8bc:	fe843783          	ld	a5,-24(s0)
     8c0:	73bc                	ld	a5,96(a5)
     8c2:	6b9c                	ld	a5,16(a5)
     8c4:	fe442703          	lw	a4,-28(s0)
     8c8:	853a                	mv	a0,a4
     8ca:	9782                	jalr	a5
     8cc:	87aa                	mv	a5,a0
     8ce:	a011                	j	8d2 <sbi_platform_early_init+0x38>
     8d0:	4781                	li	a5,0
     8d2:	853e                	mv	a0,a5
     8d4:	60e2                	ld	ra,24(sp)
     8d6:	6442                	ld	s0,16(sp)
     8d8:	6105                	addi	sp,sp,32
     8da:	8082                	ret

00000000000008dc <sbi_platform_final_init>:
     8dc:	1101                	addi	sp,sp,-32
     8de:	ec06                	sd	ra,24(sp)
     8e0:	e822                	sd	s0,16(sp)
     8e2:	1000                	addi	s0,sp,32
     8e4:	fea43423          	sd	a0,-24(s0)
     8e8:	87ae                	mv	a5,a1
     8ea:	fef42223          	sw	a5,-28(s0)
     8ee:	fe843783          	ld	a5,-24(s0)
     8f2:	c385                	beqz	a5,912 <sbi_platform_final_init+0x36>
     8f4:	fe843783          	ld	a5,-24(s0)
     8f8:	73bc                	ld	a5,96(a5)
     8fa:	6f9c                	ld	a5,24(a5)
     8fc:	cb99                	beqz	a5,912 <sbi_platform_final_init+0x36>
     8fe:	fe843783          	ld	a5,-24(s0)
     902:	73bc                	ld	a5,96(a5)
     904:	6f9c                	ld	a5,24(a5)
     906:	fe442703          	lw	a4,-28(s0)
     90a:	853a                	mv	a0,a4
     90c:	9782                	jalr	a5
     90e:	87aa                	mv	a5,a0
     910:	a011                	j	914 <sbi_platform_final_init+0x38>
     912:	4781                	li	a5,0
     914:	853e                	mv	a0,a5
     916:	60e2                	ld	ra,24(sp)
     918:	6442                	ld	s0,16(sp)
     91a:	6105                	addi	sp,sp,32
     91c:	8082                	ret

000000000000091e <sbi_platform_early_exit>:
     91e:	1101                	addi	sp,sp,-32
     920:	ec06                	sd	ra,24(sp)
     922:	e822                	sd	s0,16(sp)
     924:	1000                	addi	s0,sp,32
     926:	fea43423          	sd	a0,-24(s0)
     92a:	fe843783          	ld	a5,-24(s0)
     92e:	cb99                	beqz	a5,944 <sbi_platform_early_exit+0x26>
     930:	fe843783          	ld	a5,-24(s0)
     934:	73bc                	ld	a5,96(a5)
     936:	739c                	ld	a5,32(a5)
     938:	c791                	beqz	a5,944 <sbi_platform_early_exit+0x26>
     93a:	fe843783          	ld	a5,-24(s0)
     93e:	73bc                	ld	a5,96(a5)
     940:	739c                	ld	a5,32(a5)
     942:	9782                	jalr	a5
     944:	0001                	nop
     946:	60e2                	ld	ra,24(sp)
     948:	6442                	ld	s0,16(sp)
     94a:	6105                	addi	sp,sp,32
     94c:	8082                	ret

000000000000094e <sbi_platform_final_exit>:
     94e:	1101                	addi	sp,sp,-32
     950:	ec06                	sd	ra,24(sp)
     952:	e822                	sd	s0,16(sp)
     954:	1000                	addi	s0,sp,32
     956:	fea43423          	sd	a0,-24(s0)
     95a:	fe843783          	ld	a5,-24(s0)
     95e:	cb99                	beqz	a5,974 <sbi_platform_final_exit+0x26>
     960:	fe843783          	ld	a5,-24(s0)
     964:	73bc                	ld	a5,96(a5)
     966:	779c                	ld	a5,40(a5)
     968:	c791                	beqz	a5,974 <sbi_platform_final_exit+0x26>
     96a:	fe843783          	ld	a5,-24(s0)
     96e:	73bc                	ld	a5,96(a5)
     970:	779c                	ld	a5,40(a5)
     972:	9782                	jalr	a5
     974:	0001                	nop
     976:	60e2                	ld	ra,24(sp)
     978:	6442                	ld	s0,16(sp)
     97a:	6105                	addi	sp,sp,32
     97c:	8082                	ret

000000000000097e <sbi_boot_print_banner>:
     97e:	1101                	addi	sp,sp,-32
     980:	ec06                	sd	ra,24(sp)
     982:	e822                	sd	s0,16(sp)
     984:	1000                	addi	s0,sp,32
     986:	fea43423          	sd	a0,-24(s0)
     98a:	fe843783          	ld	a5,-24(s0)
     98e:	77bc                	ld	a5,104(a5)
     990:	8b85                	andi	a5,a5,1
     992:	e385                	bnez	a5,9b2 <sbi_boot_print_banner+0x34>
     994:	4615                	li	a2,5
     996:	4585                	li	a1,1
     998:	00033517          	auipc	a0,0x33
     99c:	67050513          	addi	a0,a0,1648 # 34008 <_PROCEDURE_LINKAGE_TABLE_+0x3c8>
     9a0:	6c8120ef          	jal	13068 <sbi_printf>
     9a4:	00033517          	auipc	a0,0x33
     9a8:	67c50513          	addi	a0,a0,1660 # 34020 <_PROCEDURE_LINKAGE_TABLE_+0x3e0>
     9ac:	6bc120ef          	jal	13068 <sbi_printf>
     9b0:	a011                	j	9b4 <sbi_boot_print_banner+0x36>
     9b2:	0001                	nop
     9b4:	60e2                	ld	ra,24(sp)
     9b6:	6442                	ld	s0,16(sp)
     9b8:	6105                	addi	sp,sp,32
     9ba:	8082                	ret

00000000000009bc <sbi_boot_print_general>:
     9bc:	716d                	addi	sp,sp,-272
     9be:	e606                	sd	ra,264(sp)
     9c0:	e222                	sd	s0,256(sp)
     9c2:	fda6                	sd	s1,248(sp)
     9c4:	f9ca                	sd	s2,240(sp)
     9c6:	f5ce                	sd	s3,232(sp)
     9c8:	0a00                	addi	s0,sp,272
     9ca:	eea43c23          	sd	a0,-264(s0)
     9ce:	ef843783          	ld	a5,-264(s0)
     9d2:	67bc                	ld	a5,72(a5)
     9d4:	fcf43423          	sd	a5,-56(s0)
     9d8:	ef843783          	ld	a5,-264(s0)
     9dc:	77bc                	ld	a5,104(a5)
     9de:	8b85                	andi	a5,a5,1
     9e0:	30079163          	bnez	a5,ce2 <sbi_boot_print_general+0x326>
     9e4:	fc843503          	ld	a0,-56(s0)
     9e8:	df1ff0ef          	jal	7d8 <sbi_platform_name>
     9ec:	87aa                	mv	a5,a0
     9ee:	85be                	mv	a1,a5
     9f0:	00033517          	auipc	a0,0x33
     9f4:	75850513          	addi	a0,a0,1880 # 34148 <_PROCEDURE_LINKAGE_TABLE_+0x508>
     9f8:	670120ef          	jal	13068 <sbi_printf>
     9fc:	f0840793          	addi	a5,s0,-248
     a00:	08000613          	li	a2,128
     a04:	85be                	mv	a1,a5
     a06:	fc843503          	ld	a0,-56(s0)
     a0a:	325010ef          	jal	252e <sbi_platform_get_features_str>
     a0e:	f0840793          	addi	a5,s0,-248
     a12:	85be                	mv	a1,a5
     a14:	00033517          	auipc	a0,0x33
     a18:	75450513          	addi	a0,a0,1876 # 34168 <_PROCEDURE_LINKAGE_TABLE_+0x528>
     a1c:	64c120ef          	jal	13068 <sbi_printf>
     a20:	fc843503          	ld	a0,-56(s0)
     a24:	dddff0ef          	jal	800 <sbi_platform_hart_count>
     a28:	87aa                	mv	a5,a0
     a2a:	2781                	sext.w	a5,a5
     a2c:	85be                	mv	a1,a5
     a2e:	00033517          	auipc	a0,0x33
     a32:	75a50513          	addi	a0,a0,1882 # 34188 <_PROCEDURE_LINKAGE_TABLE_+0x548>
     a36:	632120ef          	jal	13068 <sbi_printf>
     a3a:	74a010ef          	jal	2184 <sbi_ipi_get_device>
     a3e:	fca43023          	sd	a0,-64(s0)
     a42:	fc043783          	ld	a5,-64(s0)
     a46:	c781                	beqz	a5,a4e <sbi_boot_print_general+0x92>
     a48:	fc043783          	ld	a5,-64(s0)
     a4c:	a029                	j	a56 <sbi_boot_print_general+0x9a>
     a4e:	00033797          	auipc	a5,0x33
     a52:	75a78793          	addi	a5,a5,1882 # 341a8 <_PROCEDURE_LINKAGE_TABLE_+0x568>
     a56:	85be                	mv	a1,a5
     a58:	00033517          	auipc	a0,0x33
     a5c:	75850513          	addi	a0,a0,1880 # 341b0 <_PROCEDURE_LINKAGE_TABLE_+0x570>
     a60:	608120ef          	jal	13068 <sbi_printf>
     a64:	55e080ef          	jal	8fc2 <sbi_timer_get_device>
     a68:	faa43c23          	sd	a0,-72(s0)
     a6c:	fb843783          	ld	a5,-72(s0)
     a70:	c781                	beqz	a5,a78 <sbi_boot_print_general+0xbc>
     a72:	fb843783          	ld	a5,-72(s0)
     a76:	a029                	j	a80 <sbi_boot_print_general+0xc4>
     a78:	00033797          	auipc	a5,0x33
     a7c:	73078793          	addi	a5,a5,1840 # 341a8 <_PROCEDURE_LINKAGE_TABLE_+0x568>
     a80:	fb843703          	ld	a4,-72(s0)
     a84:	c709                	beqz	a4,a8e <sbi_boot_print_general+0xd2>
     a86:	fb843703          	ld	a4,-72(s0)
     a8a:	7318                	ld	a4,32(a4)
     a8c:	a011                	j	a90 <sbi_boot_print_general+0xd4>
     a8e:	4701                	li	a4,0
     a90:	863a                	mv	a2,a4
     a92:	85be                	mv	a1,a5
     a94:	00033517          	auipc	a0,0x33
     a98:	73c50513          	addi	a0,a0,1852 # 341d0 <_PROCEDURE_LINKAGE_TABLE_+0x590>
     a9c:	5cc120ef          	jal	13068 <sbi_printf>
     aa0:	726120ef          	jal	131c6 <sbi_console_get_device>
     aa4:	faa43823          	sd	a0,-80(s0)
     aa8:	fb043783          	ld	a5,-80(s0)
     aac:	c781                	beqz	a5,ab4 <sbi_boot_print_general+0xf8>
     aae:	fb043783          	ld	a5,-80(s0)
     ab2:	a029                	j	abc <sbi_boot_print_general+0x100>
     ab4:	00033797          	auipc	a5,0x33
     ab8:	6f478793          	addi	a5,a5,1780 # 341a8 <_PROCEDURE_LINKAGE_TABLE_+0x568>
     abc:	85be                	mv	a1,a5
     abe:	00033517          	auipc	a0,0x33
     ac2:	73a50513          	addi	a0,a0,1850 # 341f8 <_PROCEDURE_LINKAGE_TABLE_+0x5b8>
     ac6:	5a2120ef          	jal	13068 <sbi_printf>
     aca:	4d61b0ef          	jal	1bfa0 <sbi_hsm_get_device>
     ace:	faa43423          	sd	a0,-88(s0)
     ad2:	fa843783          	ld	a5,-88(s0)
     ad6:	c781                	beqz	a5,ade <sbi_boot_print_general+0x122>
     ad8:	fa843783          	ld	a5,-88(s0)
     adc:	a029                	j	ae6 <sbi_boot_print_general+0x12a>
     ade:	00033797          	auipc	a5,0x33
     ae2:	6ca78793          	addi	a5,a5,1738 # 341a8 <_PROCEDURE_LINKAGE_TABLE_+0x568>
     ae6:	85be                	mv	a1,a5
     ae8:	00033517          	auipc	a0,0x33
     aec:	73050513          	addi	a0,a0,1840 # 34218 <_PROCEDURE_LINKAGE_TABLE_+0x5d8>
     af0:	578120ef          	jal	13068 <sbi_printf>
     af4:	3f7030ef          	jal	46ea <sbi_pmu_get_device>
     af8:	faa43023          	sd	a0,-96(s0)
     afc:	fa043783          	ld	a5,-96(s0)
     b00:	c781                	beqz	a5,b08 <sbi_boot_print_general+0x14c>
     b02:	fa043783          	ld	a5,-96(s0)
     b06:	a029                	j	b10 <sbi_boot_print_general+0x154>
     b08:	00033797          	auipc	a5,0x33
     b0c:	6a078793          	addi	a5,a5,1696 # 341a8 <_PROCEDURE_LINKAGE_TABLE_+0x568>
     b10:	85be                	mv	a1,a5
     b12:	00033517          	auipc	a0,0x33
     b16:	72650513          	addi	a0,a0,1830 # 34238 <_PROCEDURE_LINKAGE_TABLE_+0x5f8>
     b1a:	54e120ef          	jal	13068 <sbi_printf>
     b1e:	4581                	li	a1,0
     b20:	4505                	li	a0,1
     b22:	331070ef          	jal	8652 <sbi_system_reset_get_device>
     b26:	f8a43c23          	sd	a0,-104(s0)
     b2a:	f9843783          	ld	a5,-104(s0)
     b2e:	c781                	beqz	a5,b36 <sbi_boot_print_general+0x17a>
     b30:	f9843783          	ld	a5,-104(s0)
     b34:	a029                	j	b3e <sbi_boot_print_general+0x182>
     b36:	00033797          	auipc	a5,0x33
     b3a:	67278793          	addi	a5,a5,1650 # 341a8 <_PROCEDURE_LINKAGE_TABLE_+0x568>
     b3e:	85be                	mv	a1,a5
     b40:	00033517          	auipc	a0,0x33
     b44:	71850513          	addi	a0,a0,1816 # 34258 <_PROCEDURE_LINKAGE_TABLE_+0x618>
     b48:	520120ef          	jal	13068 <sbi_printf>
     b4c:	4581                	li	a1,0
     b4e:	4501                	li	a0,0
     b50:	303070ef          	jal	8652 <sbi_system_reset_get_device>
     b54:	f8a43c23          	sd	a0,-104(s0)
     b58:	f9843783          	ld	a5,-104(s0)
     b5c:	c781                	beqz	a5,b64 <sbi_boot_print_general+0x1a8>
     b5e:	f9843783          	ld	a5,-104(s0)
     b62:	a029                	j	b6c <sbi_boot_print_general+0x1b0>
     b64:	00033797          	auipc	a5,0x33
     b68:	64478793          	addi	a5,a5,1604 # 341a8 <_PROCEDURE_LINKAGE_TABLE_+0x568>
     b6c:	85be                	mv	a1,a5
     b6e:	00033517          	auipc	a0,0x33
     b72:	70a50513          	addi	a0,a0,1802 # 34278 <_PROCEDURE_LINKAGE_TABLE_+0x638>
     b76:	4f2120ef          	jal	13068 <sbi_printf>
     b7a:	517070ef          	jal	8890 <sbi_system_suspend_get_device>
     b7e:	f8a43823          	sd	a0,-112(s0)
     b82:	f9043783          	ld	a5,-112(s0)
     b86:	c781                	beqz	a5,b8e <sbi_boot_print_general+0x1d2>
     b88:	f9043783          	ld	a5,-112(s0)
     b8c:	a029                	j	b96 <sbi_boot_print_general+0x1da>
     b8e:	00033797          	auipc	a5,0x33
     b92:	61a78793          	addi	a5,a5,1562 # 341a8 <_PROCEDURE_LINKAGE_TABLE_+0x568>
     b96:	85be                	mv	a1,a5
     b98:	00033517          	auipc	a0,0x33
     b9c:	70050513          	addi	a0,a0,1792 # 34298 <_PROCEDURE_LINKAGE_TABLE_+0x658>
     ba0:	4c8120ef          	jal	13068 <sbi_printf>
     ba4:	11e0b0ef          	jal	bcc2 <sbi_cppc_get_device>
     ba8:	f8a43423          	sd	a0,-120(s0)
     bac:	f8843783          	ld	a5,-120(s0)
     bb0:	c781                	beqz	a5,bb8 <sbi_boot_print_general+0x1fc>
     bb2:	f8843783          	ld	a5,-120(s0)
     bb6:	a029                	j	bc0 <sbi_boot_print_general+0x204>
     bb8:	00033797          	auipc	a5,0x33
     bbc:	5f078793          	addi	a5,a5,1520 # 341a8 <_PROCEDURE_LINKAGE_TABLE_+0x568>
     bc0:	85be                	mv	a1,a5
     bc2:	00033517          	auipc	a0,0x33
     bc6:	6f650513          	addi	a0,a0,1782 # 342b8 <_PROCEDURE_LINKAGE_TABLE_+0x678>
     bca:	49e120ef          	jal	13068 <sbi_printf>
     bce:	ef843783          	ld	a5,-264(s0)
     bd2:	639c                	ld	a5,0(a5)
     bd4:	85be                	mv	a1,a5
     bd6:	00033517          	auipc	a0,0x33
     bda:	70250513          	addi	a0,a0,1794 # 342d8 <_PROCEDURE_LINKAGE_TABLE_+0x698>
     bde:	48a120ef          	jal	13068 <sbi_printf>
     be2:	ef843783          	ld	a5,-264(s0)
     be6:	679c                	ld	a5,8(a5)
     be8:	83a9                	srli	a5,a5,0xa
     bea:	2781                	sext.w	a5,a5
     bec:	85be                	mv	a1,a5
     bee:	00033517          	auipc	a0,0x33
     bf2:	71250513          	addi	a0,a0,1810 # 34300 <_PROCEDURE_LINKAGE_TABLE_+0x6c0>
     bf6:	472120ef          	jal	13068 <sbi_printf>
     bfa:	ef843783          	ld	a5,-264(s0)
     bfe:	6b9c                	ld	a5,16(a5)
     c00:	85be                	mv	a1,a5
     c02:	00033517          	auipc	a0,0x33
     c06:	72650513          	addi	a0,a0,1830 # 34328 <_PROCEDURE_LINKAGE_TABLE_+0x6e8>
     c0a:	45e120ef          	jal	13068 <sbi_printf>
     c0e:	ef843783          	ld	a5,-264(s0)
     c12:	6798                	ld	a4,8(a5)
     c14:	ef843783          	ld	a5,-264(s0)
     c18:	6b9c                	ld	a5,16(a5)
     c1a:	40f707b3          	sub	a5,a4,a5
     c1e:	83a9                	srli	a5,a5,0xa
     c20:	2781                	sext.w	a5,a5
     c22:	85be                	mv	a1,a5
     c24:	00033517          	auipc	a0,0x33
     c28:	72c50513          	addi	a0,a0,1836 # 34350 <_PROCEDURE_LINKAGE_TABLE_+0x710>
     c2c:	43c120ef          	jal	13068 <sbi_printf>
     c30:	ef843783          	ld	a5,-264(s0)
     c34:	6f9c                	ld	a5,24(a5)
     c36:	85be                	mv	a1,a5
     c38:	00033517          	auipc	a0,0x33
     c3c:	74050513          	addi	a0,a0,1856 # 34378 <_PROCEDURE_LINKAGE_TABLE_+0x738>
     c40:	428120ef          	jal	13068 <sbi_printf>
     c44:	ef843783          	ld	a5,-264(s0)
     c48:	739c                	ld	a5,32(a5)
     c4a:	83a9                	srli	a5,a5,0xa
     c4c:	0007849b          	sext.w	s1,a5
     c50:	b69ff0ef          	jal	7b8 <sbi_heap_reserved_space>
     c54:	87aa                	mv	a5,a0
     c56:	83a9                	srli	a5,a5,0xa
     c58:	0007891b          	sext.w	s2,a5
     c5c:	b3dff0ef          	jal	798 <sbi_heap_used_space>
     c60:	87aa                	mv	a5,a0
     c62:	83a9                	srli	a5,a5,0xa
     c64:	0007899b          	sext.w	s3,a5
     c68:	b11ff0ef          	jal	778 <sbi_heap_free_space>
     c6c:	87aa                	mv	a5,a0
     c6e:	83a9                	srli	a5,a5,0xa
     c70:	2781                	sext.w	a5,a5
     c72:	873e                	mv	a4,a5
     c74:	86ce                	mv	a3,s3
     c76:	864a                	mv	a2,s2
     c78:	85a6                	mv	a1,s1
     c7a:	00033517          	auipc	a0,0x33
     c7e:	72650513          	addi	a0,a0,1830 # 343a0 <_PROCEDURE_LINKAGE_TABLE_+0x760>
     c82:	3e6120ef          	jal	13068 <sbi_printf>
     c86:	63e050ef          	jal	62c4 <sbi_scratch_used_space>
     c8a:	87aa                	mv	a5,a0
     c8c:	0007849b          	sext.w	s1,a5
     c90:	634050ef          	jal	62c4 <sbi_scratch_used_space>
     c94:	87aa                	mv	a5,a0
     c96:	2781                	sext.w	a5,a5
     c98:	6705                	lui	a4,0x1
     c9a:	40f707bb          	subw	a5,a4,a5
     c9e:	2781                	sext.w	a5,a5
     ca0:	86be                	mv	a3,a5
     ca2:	8626                	mv	a2,s1
     ca4:	6585                	lui	a1,0x1
     ca6:	00033517          	auipc	a0,0x33
     caa:	75a50513          	addi	a0,a0,1882 # 34400 <_PROCEDURE_LINKAGE_TABLE_+0x7c0>
     cae:	3ba120ef          	jal	13068 <sbi_printf>
     cb2:	7430e0ef          	jal	fbf4 <sbi_ecall_version_major>
     cb6:	87aa                	mv	a5,a0
     cb8:	0007849b          	sext.w	s1,a5
     cbc:	7490e0ef          	jal	fc04 <sbi_ecall_version_minor>
     cc0:	87aa                	mv	a5,a0
     cc2:	2781                	sext.w	a5,a5
     cc4:	863e                	mv	a2,a5
     cc6:	85a6                	mv	a1,s1
     cc8:	00033517          	auipc	a0,0x33
     ccc:	78050513          	addi	a0,a0,1920 # 34448 <_PROCEDURE_LINKAGE_TABLE_+0x808>
     cd0:	398120ef          	jal	13068 <sbi_printf>
     cd4:	00033517          	auipc	a0,0x33
     cd8:	79c50513          	addi	a0,a0,1948 # 34470 <_PROCEDURE_LINKAGE_TABLE_+0x830>
     cdc:	38c120ef          	jal	13068 <sbi_printf>
     ce0:	a011                	j	ce4 <sbi_boot_print_general+0x328>
     ce2:	0001                	nop
     ce4:	60b2                	ld	ra,264(sp)
     ce6:	6412                	ld	s0,256(sp)
     ce8:	74ee                	ld	s1,248(sp)
     cea:	794e                	ld	s2,240(sp)
     cec:	79ae                	ld	s3,232(sp)
     cee:	6151                	addi	sp,sp,272
     cf0:	8082                	ret

0000000000000cf2 <sbi_boot_print_domains>:
     cf2:	1101                	addi	sp,sp,-32
     cf4:	ec06                	sd	ra,24(sp)
     cf6:	e822                	sd	s0,16(sp)
     cf8:	1000                	addi	s0,sp,32
     cfa:	fea43423          	sd	a0,-24(s0)
     cfe:	fe843783          	ld	a5,-24(s0)
     d02:	77bc                	ld	a5,104(a5)
     d04:	8b85                	andi	a5,a5,1
     d06:	eb81                	bnez	a5,d16 <sbi_boot_print_domains+0x24>
     d08:	00033517          	auipc	a0,0x33
     d0c:	77050513          	addi	a0,a0,1904 # 34478 <_PROCEDURE_LINKAGE_TABLE_+0x838>
     d10:	2ad130ef          	jal	147bc <sbi_domain_dump_all>
     d14:	a011                	j	d18 <sbi_boot_print_domains+0x26>
     d16:	0001                	nop
     d18:	60e2                	ld	ra,24(sp)
     d1a:	6442                	ld	s0,16(sp)
     d1c:	6105                	addi	sp,sp,32
     d1e:	8082                	ret

0000000000000d20 <sbi_boot_print_hart>:
     d20:	7131                	addi	sp,sp,-192
     d22:	fd06                	sd	ra,184(sp)
     d24:	f922                	sd	s0,176(sp)
     d26:	f526                	sd	s1,168(sp)
     d28:	0180                	addi	s0,sp,192
     d2a:	f4a43423          	sd	a0,-184(s0)
     d2e:	87ae                	mv	a5,a1
     d30:	f4f42223          	sw	a5,-188(s0)
     d34:	f14027f3          	csrr	a5,mhartid
     d38:	80be                	mv	ra,a5
     d3a:	8786                	mv	a5,ra
     d3c:	2781                	sext.w	a5,a5
     d3e:	853e                	mv	a0,a5
     d40:	348050ef          	jal	6088 <sbi_hartid_to_hartindex>
     d44:	87aa                	mv	a5,a0
     d46:	2781                	sext.w	a5,a5
     d48:	853e                	mv	a0,a5
     d4a:	0fb120ef          	jal	13644 <sbi_hartindex_to_domain>
     d4e:	fca43c23          	sd	a0,-40(s0)
     d52:	f4843783          	ld	a5,-184(s0)
     d56:	77bc                	ld	a5,104(a5)
     d58:	8b85                	andi	a5,a5,1
     d5a:	16079963          	bnez	a5,ecc <sbi_boot_print_hart+0x1ac>
     d5e:	2510c0ef          	jal	d7ae <misa_xlen>
     d62:	87aa                	mv	a5,a0
     d64:	fcf42a23          	sw	a5,-44(s0)
     d68:	fd442783          	lw	a5,-44(s0)
     d6c:	2781                	sext.w	a5,a5
     d6e:	00f04d63          	bgtz	a5,d88 <sbi_boot_print_hart+0x68>
     d72:	fd442783          	lw	a5,-44(s0)
     d76:	85be                	mv	a1,a5
     d78:	00033517          	auipc	a0,0x33
     d7c:	70850513          	addi	a0,a0,1800 # 34480 <_PROCEDURE_LINKAGE_TABLE_+0x840>
     d80:	2e8120ef          	jal	13068 <sbi_printf>
     d84:	1c81a0ef          	jal	1af4c <sbi_hart_hang>
     d88:	f4442783          	lw	a5,-188(s0)
     d8c:	85be                	mv	a1,a5
     d8e:	00033517          	auipc	a0,0x33
     d92:	71250513          	addi	a0,a0,1810 # 344a0 <_PROCEDURE_LINKAGE_TABLE_+0x860>
     d96:	2d2120ef          	jal	13068 <sbi_printf>
     d9a:	fd843783          	ld	a5,-40(s0)
     d9e:	07f1                	addi	a5,a5,28
     da0:	85be                	mv	a1,a5
     da2:	00033517          	auipc	a0,0x33
     da6:	71e50513          	addi	a0,a0,1822 # 344c0 <_PROCEDURE_LINKAGE_TABLE_+0x880>
     daa:	2be120ef          	jal	13068 <sbi_printf>
     dae:	f5040793          	addi	a5,s0,-176
     db2:	08000613          	li	a2,128
     db6:	85be                	mv	a1,a5
     db8:	f4843503          	ld	a0,-184(s0)
     dbc:	290160ef          	jal	1704c <sbi_hart_get_priv_version_str>
     dc0:	f5040793          	addi	a5,s0,-176
     dc4:	85be                	mv	a1,a5
     dc6:	00033517          	auipc	a0,0x33
     dca:	71a50513          	addi	a0,a0,1818 # 344e0 <_PROCEDURE_LINKAGE_TABLE_+0x8a0>
     dce:	29a120ef          	jal	13068 <sbi_printf>
     dd2:	f5040713          	addi	a4,s0,-176
     dd6:	fd442783          	lw	a5,-44(s0)
     dda:	08000613          	li	a2,128
     dde:	85ba                	mv	a1,a4
     de0:	853e                	mv	a0,a5
     de2:	2290c0ef          	jal	d80a <misa_string>
     de6:	f5040793          	addi	a5,s0,-176
     dea:	85be                	mv	a1,a5
     dec:	00033517          	auipc	a0,0x33
     df0:	71450513          	addi	a0,a0,1812 # 34500 <_PROCEDURE_LINKAGE_TABLE_+0x8c0>
     df4:	274120ef          	jal	13068 <sbi_printf>
     df8:	f5040793          	addi	a5,s0,-176
     dfc:	08000613          	li	a2,128
     e00:	85be                	mv	a1,a5
     e02:	f4843503          	ld	a0,-184(s0)
     e06:	3de160ef          	jal	171e4 <sbi_hart_get_extensions_str>
     e0a:	f5040793          	addi	a5,s0,-176
     e0e:	85be                	mv	a1,a5
     e10:	00033517          	auipc	a0,0x33
     e14:	71050513          	addi	a0,a0,1808 # 34520 <_PROCEDURE_LINKAGE_TABLE_+0x8e0>
     e18:	250120ef          	jal	13068 <sbi_printf>
     e1c:	f4843503          	ld	a0,-184(s0)
     e20:	12d150ef          	jal	1674c <sbi_hart_pmp_count>
     e24:	87aa                	mv	a5,a0
     e26:	2781                	sext.w	a5,a5
     e28:	85be                	mv	a1,a5
     e2a:	00033517          	auipc	a0,0x33
     e2e:	71650513          	addi	a0,a0,1814 # 34540 <_PROCEDURE_LINKAGE_TABLE_+0x900>
     e32:	236120ef          	jal	13068 <sbi_printf>
     e36:	f4843503          	ld	a0,-184(s0)
     e3a:	13f150ef          	jal	16778 <sbi_hart_pmp_log2gran>
     e3e:	87aa                	mv	a5,a0
     e40:	2781                	sext.w	a5,a5
     e42:	85be                	mv	a1,a5
     e44:	00033517          	auipc	a0,0x33
     e48:	71c50513          	addi	a0,a0,1820 # 34560 <_PROCEDURE_LINKAGE_TABLE_+0x920>
     e4c:	21c120ef          	jal	13068 <sbi_printf>
     e50:	f4843503          	ld	a0,-184(s0)
     e54:	151150ef          	jal	167a4 <sbi_hart_pmp_addrbits>
     e58:	87aa                	mv	a5,a0
     e5a:	2781                	sext.w	a5,a5
     e5c:	85be                	mv	a1,a5
     e5e:	00033517          	auipc	a0,0x33
     e62:	72a50513          	addi	a0,a0,1834 # 34588 <_PROCEDURE_LINKAGE_TABLE_+0x948>
     e66:	202120ef          	jal	13068 <sbi_printf>
     e6a:	f4843503          	ld	a0,-184(s0)
     e6e:	0b3150ef          	jal	16720 <sbi_hart_mhpm_mask>
     e72:	87aa                	mv	a5,a0
     e74:	2781                	sext.w	a5,a5
     e76:	1782                	slli	a5,a5,0x20
     e78:	9381                	srli	a5,a5,0x20
     e7a:	853e                	mv	a0,a5
     e7c:	8c1ff0ef          	jal	73c <sbi_popcount>
     e80:	84aa                	mv	s1,a0
     e82:	f4843503          	ld	a0,-184(s0)
     e86:	09b150ef          	jal	16720 <sbi_hart_mhpm_mask>
     e8a:	87aa                	mv	a5,a0
     e8c:	2781                	sext.w	a5,a5
     e8e:	863e                	mv	a2,a5
     e90:	85a6                	mv	a1,s1
     e92:	00033517          	auipc	a0,0x33
     e96:	71650513          	addi	a0,a0,1814 # 345a8 <_PROCEDURE_LINKAGE_TABLE_+0x968>
     e9a:	1ce120ef          	jal	13068 <sbi_printf>
     e9e:	28c040ef          	jal	512a <sbi_dbtr_get_total_triggers>
     ea2:	87aa                	mv	a5,a0
     ea4:	85be                	mv	a1,a5
     ea6:	00033517          	auipc	a0,0x33
     eaa:	73250513          	addi	a0,a0,1842 # 345d8 <_PROCEDURE_LINKAGE_TABLE_+0x998>
     eae:	1ba120ef          	jal	13068 <sbi_printf>
     eb2:	00033617          	auipc	a2,0x33
     eb6:	75660613          	addi	a2,a2,1878 # 34608 <_PROCEDURE_LINKAGE_TABLE_+0x9c8>
     eba:	00033597          	auipc	a1,0x33
     ebe:	75e58593          	addi	a1,a1,1886 # 34618 <_PROCEDURE_LINKAGE_TABLE_+0x9d8>
     ec2:	f4843503          	ld	a0,-184(s0)
     ec6:	7f2150ef          	jal	166b8 <sbi_hart_delegation_dump>
     eca:	a011                	j	ece <sbi_boot_print_hart+0x1ae>
     ecc:	0001                	nop
     ece:	70ea                	ld	ra,184(sp)
     ed0:	744a                	ld	s0,176(sp)
     ed2:	74aa                	ld	s1,168(sp)
     ed4:	6129                	addi	sp,sp,192
     ed6:	8082                	ret

0000000000000ed8 <wait_for_coldboot>:
     ed8:	7179                	addi	sp,sp,-48
     eda:	f422                	sd	s0,40(sp)
     edc:	1800                	addi	s0,sp,48
     ede:	fca43c23          	sd	a0,-40(s0)
     ee2:	87ae                	mv	a5,a1
     ee4:	fcf42a23          	sw	a5,-44(s0)
     ee8:	a029                	j	ef2 <wait_for_coldboot+0x1a>
     eea:	0207c7b3          	div	a5,a5,zero
     eee:	fef43023          	sd	a5,-32(s0)
     ef2:	00082797          	auipc	a5,0x82
     ef6:	10e78793          	addi	a5,a5,270 # 83000 <coldboot_done>
     efa:	639c                	ld	a5,0(a5)
     efc:	fef43423          	sd	a5,-24(s0)
     f00:	0230000f          	fence	r,rw
     f04:	fe843783          	ld	a5,-24(s0)
     f08:	d3ed                	beqz	a5,eea <wait_for_coldboot+0x12>
     f0a:	0001                	nop
     f0c:	0001                	nop
     f0e:	7422                	ld	s0,40(sp)
     f10:	6145                	addi	sp,sp,48
     f12:	8082                	ret

0000000000000f14 <wake_coldboot_harts>:
     f14:	1101                	addi	sp,sp,-32
     f16:	ec22                	sd	s0,24(sp)
     f18:	1000                	addi	s0,sp,32
     f1a:	fea43423          	sd	a0,-24(s0)
     f1e:	87ae                	mv	a5,a1
     f20:	fef42223          	sw	a5,-28(s0)
     f24:	0310000f          	fence	rw,w
     f28:	00082797          	auipc	a5,0x82
     f2c:	0d878793          	addi	a5,a5,216 # 83000 <coldboot_done>
     f30:	4705                	li	a4,1
     f32:	e398                	sd	a4,0(a5)
     f34:	0001                	nop
     f36:	6462                	ld	s0,24(sp)
     f38:	6105                	addi	sp,sp,32
     f3a:	8082                	ret

0000000000000f3c <init_coldboot>:
     f3c:	7139                	addi	sp,sp,-64
     f3e:	fc06                	sd	ra,56(sp)
     f40:	f822                	sd	s0,48(sp)
     f42:	0080                	addi	s0,sp,64
     f44:	fca43423          	sd	a0,-56(s0)
     f48:	87ae                	mv	a5,a1
     f4a:	fcf42223          	sw	a5,-60(s0)
     f4e:	fc843783          	ld	a5,-56(s0)
     f52:	67bc                	ld	a5,72(a5)
     f54:	fef43423          	sd	a5,-24(s0)
     f58:	fc843503          	ld	a0,-56(s0)
     f5c:	188050ef          	jal	60e4 <sbi_scratch_init>
     f60:	87aa                	mv	a5,a0
     f62:	fef42223          	sw	a5,-28(s0)
     f66:	fe442783          	lw	a5,-28(s0)
     f6a:	2781                	sext.w	a5,a5
     f6c:	c399                	beqz	a5,f72 <init_coldboot+0x36>
     f6e:	7df190ef          	jal	1af4c <sbi_hart_hang>
     f72:	fc843503          	ld	a0,-56(s0)
     f76:	3311a0ef          	jal	1baa6 <sbi_heap_init>
     f7a:	87aa                	mv	a5,a0
     f7c:	fef42223          	sw	a5,-28(s0)
     f80:	fe442783          	lw	a5,-28(s0)
     f84:	2781                	sext.w	a5,a5
     f86:	c399                	beqz	a5,f8c <init_coldboot+0x50>
     f88:	7c5190ef          	jal	1af4c <sbi_hart_hang>
     f8c:	fc442783          	lw	a5,-60(s0)
     f90:	85be                	mv	a1,a5
     f92:	fc843503          	ld	a0,-56(s0)
     f96:	7e1130ef          	jal	14f76 <sbi_domain_init>
     f9a:	87aa                	mv	a5,a0
     f9c:	fef42223          	sw	a5,-28(s0)
     fa0:	fe442783          	lw	a5,-28(s0)
     fa4:	2781                	sext.w	a5,a5
     fa6:	c399                	beqz	a5,fac <init_coldboot+0x70>
     fa8:	7a5190ef          	jal	1af4c <sbi_hart_hang>
     fac:	4521                	li	a0,8
     fae:	1f0050ef          	jal	619e <sbi_scratch_alloc_offset>
     fb2:	872a                	mv	a4,a0
     fb4:	00082797          	auipc	a5,0x82
     fb8:	05478793          	addi	a5,a5,84 # 83008 <entry_count_offset>
     fbc:	e398                	sd	a4,0(a5)
     fbe:	00082797          	auipc	a5,0x82
     fc2:	04a78793          	addi	a5,a5,74 # 83008 <entry_count_offset>
     fc6:	639c                	ld	a5,0(a5)
     fc8:	e399                	bnez	a5,fce <init_coldboot+0x92>
     fca:	783190ef          	jal	1af4c <sbi_hart_hang>
     fce:	4521                	li	a0,8
     fd0:	1ce050ef          	jal	619e <sbi_scratch_alloc_offset>
     fd4:	872a                	mv	a4,a0
     fd6:	00082797          	auipc	a5,0x82
     fda:	03a78793          	addi	a5,a5,58 # 83010 <init_count_offset>
     fde:	e398                	sd	a4,0(a5)
     fe0:	00082797          	auipc	a5,0x82
     fe4:	03078793          	addi	a5,a5,48 # 83010 <init_count_offset>
     fe8:	639c                	ld	a5,0(a5)
     fea:	e399                	bnez	a5,ff0 <init_coldboot+0xb4>
     fec:	761190ef          	jal	1af4c <sbi_hart_hang>
     ff0:	00082797          	auipc	a5,0x82
     ff4:	01878793          	addi	a5,a5,24 # 83008 <entry_count_offset>
     ff8:	639c                	ld	a5,0(a5)
     ffa:	fc843703          	ld	a4,-56(s0)
     ffe:	97ba                	add	a5,a5,a4
    1000:	fcf43c23          	sd	a5,-40(s0)
    1004:	fd843783          	ld	a5,-40(s0)
    1008:	639c                	ld	a5,0(a5)
    100a:	00178713          	addi	a4,a5,1
    100e:	fd843783          	ld	a5,-40(s0)
    1012:	e398                	sd	a4,0(a5)
    1014:	fc442783          	lw	a5,-60(s0)
    1018:	4605                	li	a2,1
    101a:	85be                	mv	a1,a5
    101c:	fc843503          	ld	a0,-56(s0)
    1020:	15e1b0ef          	jal	1c17e <sbi_hsm_init>
    1024:	87aa                	mv	a5,a0
    1026:	fef42223          	sw	a5,-28(s0)
    102a:	fe442783          	lw	a5,-28(s0)
    102e:	2781                	sext.w	a5,a5
    1030:	c399                	beqz	a5,1036 <init_coldboot+0xfa>
    1032:	71b190ef          	jal	1af4c <sbi_hart_hang>
    1036:	fc442783          	lw	a5,-60(s0)
    103a:	85be                	mv	a1,a5
    103c:	fc843503          	ld	a0,-56(s0)
    1040:	ed5ff0ef          	jal	f14 <wake_coldboot_harts>
    1044:	4585                	li	a1,1
    1046:	fe843503          	ld	a0,-24(s0)
    104a:	851ff0ef          	jal	89a <sbi_platform_early_init>
    104e:	87aa                	mv	a5,a0
    1050:	fef42223          	sw	a5,-28(s0)
    1054:	fe442783          	lw	a5,-28(s0)
    1058:	2781                	sext.w	a5,a5
    105a:	c399                	beqz	a5,1060 <init_coldboot+0x124>
    105c:	6f1190ef          	jal	1af4c <sbi_hart_hang>
    1060:	4585                	li	a1,1
    1062:	fc843503          	ld	a0,-56(s0)
    1066:	64d190ef          	jal	1aeb2 <sbi_hart_init>
    106a:	87aa                	mv	a5,a0
    106c:	fef42223          	sw	a5,-28(s0)
    1070:	fe442783          	lw	a5,-28(s0)
    1074:	2781                	sext.w	a5,a5
    1076:	c399                	beqz	a5,107c <init_coldboot+0x140>
    1078:	6d5190ef          	jal	1af4c <sbi_hart_hang>
    107c:	4585                	li	a1,1
    107e:	fc843503          	ld	a0,-56(s0)
    1082:	545060ef          	jal	7dc6 <sbi_sse_init>
    1086:	87aa                	mv	a5,a0
    1088:	fef42223          	sw	a5,-28(s0)
    108c:	fe442783          	lw	a5,-28(s0)
    1090:	2781                	sext.w	a5,a5
    1092:	c385                	beqz	a5,10b2 <init_coldboot+0x176>
    1094:	fe442783          	lw	a5,-28(s0)
    1098:	863e                	mv	a2,a5
    109a:	00033597          	auipc	a1,0x33
    109e:	72e58593          	addi	a1,a1,1838 # 347c8 <__func__.0>
    10a2:	00033517          	auipc	a0,0x33
    10a6:	58650513          	addi	a0,a0,1414 # 34628 <_PROCEDURE_LINKAGE_TABLE_+0x9e8>
    10aa:	7bf110ef          	jal	13068 <sbi_printf>
    10ae:	69f190ef          	jal	1af4c <sbi_hart_hang>
    10b2:	4585                	li	a1,1
    10b4:	fc843503          	ld	a0,-56(s0)
    10b8:	027030ef          	jal	48de <sbi_pmu_init>
    10bc:	87aa                	mv	a5,a0
    10be:	fef42223          	sw	a5,-28(s0)
    10c2:	fe442783          	lw	a5,-28(s0)
    10c6:	2781                	sext.w	a5,a5
    10c8:	c385                	beqz	a5,10e8 <init_coldboot+0x1ac>
    10ca:	fe442783          	lw	a5,-28(s0)
    10ce:	863e                	mv	a2,a5
    10d0:	00033597          	auipc	a1,0x33
    10d4:	6f858593          	addi	a1,a1,1784 # 347c8 <__func__.0>
    10d8:	00033517          	auipc	a0,0x33
    10dc:	57050513          	addi	a0,a0,1392 # 34648 <_PROCEDURE_LINKAGE_TABLE_+0xa08>
    10e0:	789110ef          	jal	13068 <sbi_printf>
    10e4:	669190ef          	jal	1af4c <sbi_hart_hang>
    10e8:	4585                	li	a1,1
    10ea:	fc843503          	ld	a0,-56(s0)
    10ee:	543030ef          	jal	4e30 <sbi_dbtr_init>
    10f2:	87aa                	mv	a5,a0
    10f4:	fef42223          	sw	a5,-28(s0)
    10f8:	fe442783          	lw	a5,-28(s0)
    10fc:	2781                	sext.w	a5,a5
    10fe:	c399                	beqz	a5,1104 <init_coldboot+0x1c8>
    1100:	64d190ef          	jal	1af4c <sbi_hart_hang>
    1104:	fc843503          	ld	a0,-56(s0)
    1108:	877ff0ef          	jal	97e <sbi_boot_print_banner>
    110c:	4585                	li	a1,1
    110e:	fc843503          	ld	a0,-56(s0)
    1112:	2fa010ef          	jal	240c <sbi_irqchip_init>
    1116:	87aa                	mv	a5,a0
    1118:	fef42223          	sw	a5,-28(s0)
    111c:	fe442783          	lw	a5,-28(s0)
    1120:	2781                	sext.w	a5,a5
    1122:	c385                	beqz	a5,1142 <init_coldboot+0x206>
    1124:	fe442783          	lw	a5,-28(s0)
    1128:	863e                	mv	a2,a5
    112a:	00033597          	auipc	a1,0x33
    112e:	69e58593          	addi	a1,a1,1694 # 347c8 <__func__.0>
    1132:	00033517          	auipc	a0,0x33
    1136:	53650513          	addi	a0,a0,1334 # 34668 <_PROCEDURE_LINKAGE_TABLE_+0xa28>
    113a:	72f110ef          	jal	13068 <sbi_printf>
    113e:	60f190ef          	jal	1af4c <sbi_hart_hang>
    1142:	4585                	li	a1,1
    1144:	fc843503          	ld	a0,-56(s0)
    1148:	088010ef          	jal	21d0 <sbi_ipi_init>
    114c:	87aa                	mv	a5,a0
    114e:	fef42223          	sw	a5,-28(s0)
    1152:	fe442783          	lw	a5,-28(s0)
    1156:	2781                	sext.w	a5,a5
    1158:	c385                	beqz	a5,1178 <init_coldboot+0x23c>
    115a:	fe442783          	lw	a5,-28(s0)
    115e:	863e                	mv	a2,a5
    1160:	00033597          	auipc	a1,0x33
    1164:	66858593          	addi	a1,a1,1640 # 347c8 <__func__.0>
    1168:	00033517          	auipc	a0,0x33
    116c:	52850513          	addi	a0,a0,1320 # 34690 <_PROCEDURE_LINKAGE_TABLE_+0xa50>
    1170:	6f9110ef          	jal	13068 <sbi_printf>
    1174:	5d9190ef          	jal	1af4c <sbi_hart_hang>
    1178:	4585                	li	a1,1
    117a:	fc843503          	ld	a0,-56(s0)
    117e:	24b080ef          	jal	9bc8 <sbi_tlb_init>
    1182:	87aa                	mv	a5,a0
    1184:	fef42223          	sw	a5,-28(s0)
    1188:	fe442783          	lw	a5,-28(s0)
    118c:	2781                	sext.w	a5,a5
    118e:	c385                	beqz	a5,11ae <init_coldboot+0x272>
    1190:	fe442783          	lw	a5,-28(s0)
    1194:	863e                	mv	a2,a5
    1196:	00033597          	auipc	a1,0x33
    119a:	63258593          	addi	a1,a1,1586 # 347c8 <__func__.0>
    119e:	00033517          	auipc	a0,0x33
    11a2:	51250513          	addi	a0,a0,1298 # 346b0 <_PROCEDURE_LINKAGE_TABLE_+0xa70>
    11a6:	6c3110ef          	jal	13068 <sbi_printf>
    11aa:	5a3190ef          	jal	1af4c <sbi_hart_hang>
    11ae:	4585                	li	a1,1
    11b0:	fc843503          	ld	a0,-56(s0)
    11b4:	68b070ef          	jal	903e <sbi_timer_init>
    11b8:	87aa                	mv	a5,a0
    11ba:	fef42223          	sw	a5,-28(s0)
    11be:	fe442783          	lw	a5,-28(s0)
    11c2:	2781                	sext.w	a5,a5
    11c4:	c385                	beqz	a5,11e4 <init_coldboot+0x2a8>
    11c6:	fe442783          	lw	a5,-28(s0)
    11ca:	863e                	mv	a2,a5
    11cc:	00033597          	auipc	a1,0x33
    11d0:	5fc58593          	addi	a1,a1,1532 # 347c8 <__func__.0>
    11d4:	00033517          	auipc	a0,0x33
    11d8:	4fc50513          	addi	a0,a0,1276 # 346d0 <_PROCEDURE_LINKAGE_TABLE_+0xa90>
    11dc:	68d110ef          	jal	13068 <sbi_printf>
    11e0:	56d190ef          	jal	1af4c <sbi_hart_hang>
    11e4:	4585                	li	a1,1
    11e6:	fc843503          	ld	a0,-56(s0)
    11ea:	431140ef          	jal	15e1a <sbi_fwft_init>
    11ee:	87aa                	mv	a5,a0
    11f0:	fef42223          	sw	a5,-28(s0)
    11f4:	fe442783          	lw	a5,-28(s0)
    11f8:	2781                	sext.w	a5,a5
    11fa:	c385                	beqz	a5,121a <init_coldboot+0x2de>
    11fc:	fe442783          	lw	a5,-28(s0)
    1200:	863e                	mv	a2,a5
    1202:	00033597          	auipc	a1,0x33
    1206:	5c658593          	addi	a1,a1,1478 # 347c8 <__func__.0>
    120a:	00033517          	auipc	a0,0x33
    120e:	4ee50513          	addi	a0,a0,1262 # 346f8 <_PROCEDURE_LINKAGE_TABLE_+0xab8>
    1212:	657110ef          	jal	13068 <sbi_printf>
    1216:	537190ef          	jal	1af4c <sbi_hart_hang>
    121a:	fc442783          	lw	a5,-60(s0)
    121e:	85be                	mv	a1,a5
    1220:	fc843503          	ld	a0,-56(s0)
    1224:	37b130ef          	jal	14d9e <sbi_domain_finalize>
    1228:	87aa                	mv	a5,a0
    122a:	fef42223          	sw	a5,-28(s0)
    122e:	fe442783          	lw	a5,-28(s0)
    1232:	2781                	sext.w	a5,a5
    1234:	c385                	beqz	a5,1254 <init_coldboot+0x318>
    1236:	fe442783          	lw	a5,-28(s0)
    123a:	863e                	mv	a2,a5
    123c:	00033597          	auipc	a1,0x33
    1240:	58c58593          	addi	a1,a1,1420 # 347c8 <__func__.0>
    1244:	00033517          	auipc	a0,0x33
    1248:	4dc50513          	addi	a0,a0,1244 # 34720 <_PROCEDURE_LINKAGE_TABLE_+0xae0>
    124c:	61d110ef          	jal	13068 <sbi_printf>
    1250:	4fd190ef          	jal	1af4c <sbi_hart_hang>
    1254:	4585                	li	a1,1
    1256:	fe843503          	ld	a0,-24(s0)
    125a:	e82ff0ef          	jal	8dc <sbi_platform_final_init>
    125e:	87aa                	mv	a5,a0
    1260:	fef42223          	sw	a5,-28(s0)
    1264:	fe442783          	lw	a5,-28(s0)
    1268:	2781                	sext.w	a5,a5
    126a:	c385                	beqz	a5,128a <init_coldboot+0x34e>
    126c:	fe442783          	lw	a5,-28(s0)
    1270:	863e                	mv	a2,a5
    1272:	00033597          	auipc	a1,0x33
    1276:	55658593          	addi	a1,a1,1366 # 347c8 <__func__.0>
    127a:	00033517          	auipc	a0,0x33
    127e:	4ce50513          	addi	a0,a0,1230 # 34748 <_PROCEDURE_LINKAGE_TABLE_+0xb08>
    1282:	5e7110ef          	jal	13068 <sbi_printf>
    1286:	4c7190ef          	jal	1af4c <sbi_hart_hang>
    128a:	4a30e0ef          	jal	ff2c <sbi_ecall_init>
    128e:	87aa                	mv	a5,a0
    1290:	fef42223          	sw	a5,-28(s0)
    1294:	fe442783          	lw	a5,-28(s0)
    1298:	2781                	sext.w	a5,a5
    129a:	c385                	beqz	a5,12ba <init_coldboot+0x37e>
    129c:	fe442783          	lw	a5,-28(s0)
    12a0:	863e                	mv	a2,a5
    12a2:	00033597          	auipc	a1,0x33
    12a6:	52658593          	addi	a1,a1,1318 # 347c8 <__func__.0>
    12aa:	00033517          	auipc	a0,0x33
    12ae:	4ce50513          	addi	a0,a0,1230 # 34778 <_PROCEDURE_LINKAGE_TABLE_+0xb38>
    12b2:	5b7110ef          	jal	13068 <sbi_printf>
    12b6:	497190ef          	jal	1af4c <sbi_hart_hang>
    12ba:	fc843503          	ld	a0,-56(s0)
    12be:	efeff0ef          	jal	9bc <sbi_boot_print_general>
    12c2:	fc843503          	ld	a0,-56(s0)
    12c6:	a2dff0ef          	jal	cf2 <sbi_boot_print_domains>
    12ca:	fc442783          	lw	a5,-60(s0)
    12ce:	85be                	mv	a1,a5
    12d0:	fc843503          	ld	a0,-56(s0)
    12d4:	a4dff0ef          	jal	d20 <sbi_boot_print_hart>
    12d8:	fc843503          	ld	a0,-56(s0)
    12dc:	465150ef          	jal	16f40 <sbi_hart_pmp_configure>
    12e0:	87aa                	mv	a5,a0
    12e2:	fef42223          	sw	a5,-28(s0)
    12e6:	fe442783          	lw	a5,-28(s0)
    12ea:	2781                	sext.w	a5,a5
    12ec:	c385                	beqz	a5,130c <init_coldboot+0x3d0>
    12ee:	fe442783          	lw	a5,-28(s0)
    12f2:	863e                	mv	a2,a5
    12f4:	00033597          	auipc	a1,0x33
    12f8:	4d458593          	addi	a1,a1,1236 # 347c8 <__func__.0>
    12fc:	00033517          	auipc	a0,0x33
    1300:	4a450513          	addi	a0,a0,1188 # 347a0 <_PROCEDURE_LINKAGE_TABLE_+0xb60>
    1304:	565110ef          	jal	13068 <sbi_printf>
    1308:	445190ef          	jal	1af4c <sbi_hart_hang>
    130c:	00082797          	auipc	a5,0x82
    1310:	d0478793          	addi	a5,a5,-764 # 83010 <init_count_offset>
    1314:	639c                	ld	a5,0(a5)
    1316:	fc843703          	ld	a4,-56(s0)
    131a:	97ba                	add	a5,a5,a4
    131c:	fcf43c23          	sd	a5,-40(s0)
    1320:	fd843783          	ld	a5,-40(s0)
    1324:	639c                	ld	a5,0(a5)
    1326:	00178713          	addi	a4,a5,1
    132a:	fd843783          	ld	a5,-40(s0)
    132e:	e398                	sd	a4,0(a5)
    1330:	fc442783          	lw	a5,-60(s0)
    1334:	85be                	mv	a1,a5
    1336:	fc843503          	ld	a0,-56(s0)
    133a:	3431a0ef          	jal	1be7c <sbi_hsm_hart_start_finish>

000000000000133e <init_warm_startup>:
    133e:	7139                	addi	sp,sp,-64
    1340:	fc06                	sd	ra,56(sp)
    1342:	f822                	sd	s0,48(sp)
    1344:	0080                	addi	s0,sp,64
    1346:	fca43423          	sd	a0,-56(s0)
    134a:	87ae                	mv	a5,a1
    134c:	fcf42223          	sw	a5,-60(s0)
    1350:	fc843783          	ld	a5,-56(s0)
    1354:	67bc                	ld	a5,72(a5)
    1356:	fef43423          	sd	a5,-24(s0)
    135a:	00082797          	auipc	a5,0x82
    135e:	cae78793          	addi	a5,a5,-850 # 83008 <entry_count_offset>
    1362:	639c                	ld	a5,0(a5)
    1364:	c799                	beqz	a5,1372 <init_warm_startup+0x34>
    1366:	00082797          	auipc	a5,0x82
    136a:	caa78793          	addi	a5,a5,-854 # 83010 <init_count_offset>
    136e:	639c                	ld	a5,0(a5)
    1370:	e399                	bnez	a5,1376 <init_warm_startup+0x38>
    1372:	3db190ef          	jal	1af4c <sbi_hart_hang>
    1376:	00082797          	auipc	a5,0x82
    137a:	c9278793          	addi	a5,a5,-878 # 83008 <entry_count_offset>
    137e:	639c                	ld	a5,0(a5)
    1380:	fc843703          	ld	a4,-56(s0)
    1384:	97ba                	add	a5,a5,a4
    1386:	fef43023          	sd	a5,-32(s0)
    138a:	fe043783          	ld	a5,-32(s0)
    138e:	639c                	ld	a5,0(a5)
    1390:	00178713          	addi	a4,a5,1
    1394:	fe043783          	ld	a5,-32(s0)
    1398:	e398                	sd	a4,0(a5)
    139a:	fc442783          	lw	a5,-60(s0)
    139e:	4601                	li	a2,0
    13a0:	85be                	mv	a1,a5
    13a2:	fc843503          	ld	a0,-56(s0)
    13a6:	5d91a0ef          	jal	1c17e <sbi_hsm_init>
    13aa:	87aa                	mv	a5,a0
    13ac:	fcf42e23          	sw	a5,-36(s0)
    13b0:	fdc42783          	lw	a5,-36(s0)
    13b4:	2781                	sext.w	a5,a5
    13b6:	c399                	beqz	a5,13bc <init_warm_startup+0x7e>
    13b8:	395190ef          	jal	1af4c <sbi_hart_hang>
    13bc:	4581                	li	a1,0
    13be:	fe843503          	ld	a0,-24(s0)
    13c2:	cd8ff0ef          	jal	89a <sbi_platform_early_init>
    13c6:	87aa                	mv	a5,a0
    13c8:	fcf42e23          	sw	a5,-36(s0)
    13cc:	fdc42783          	lw	a5,-36(s0)
    13d0:	2781                	sext.w	a5,a5
    13d2:	c399                	beqz	a5,13d8 <init_warm_startup+0x9a>
    13d4:	379190ef          	jal	1af4c <sbi_hart_hang>
    13d8:	4581                	li	a1,0
    13da:	fc843503          	ld	a0,-56(s0)
    13de:	2d5190ef          	jal	1aeb2 <sbi_hart_init>
    13e2:	87aa                	mv	a5,a0
    13e4:	fcf42e23          	sw	a5,-36(s0)
    13e8:	fdc42783          	lw	a5,-36(s0)
    13ec:	2781                	sext.w	a5,a5
    13ee:	c399                	beqz	a5,13f4 <init_warm_startup+0xb6>
    13f0:	35d190ef          	jal	1af4c <sbi_hart_hang>
    13f4:	4581                	li	a1,0
    13f6:	fc843503          	ld	a0,-56(s0)
    13fa:	1cd060ef          	jal	7dc6 <sbi_sse_init>
    13fe:	87aa                	mv	a5,a0
    1400:	fcf42e23          	sw	a5,-36(s0)
    1404:	fdc42783          	lw	a5,-36(s0)
    1408:	2781                	sext.w	a5,a5
    140a:	c399                	beqz	a5,1410 <init_warm_startup+0xd2>
    140c:	341190ef          	jal	1af4c <sbi_hart_hang>
    1410:	4581                	li	a1,0
    1412:	fc843503          	ld	a0,-56(s0)
    1416:	4c8030ef          	jal	48de <sbi_pmu_init>
    141a:	87aa                	mv	a5,a0
    141c:	fcf42e23          	sw	a5,-36(s0)
    1420:	fdc42783          	lw	a5,-36(s0)
    1424:	2781                	sext.w	a5,a5
    1426:	c399                	beqz	a5,142c <init_warm_startup+0xee>
    1428:	325190ef          	jal	1af4c <sbi_hart_hang>
    142c:	4581                	li	a1,0
    142e:	fc843503          	ld	a0,-56(s0)
    1432:	1ff030ef          	jal	4e30 <sbi_dbtr_init>
    1436:	87aa                	mv	a5,a0
    1438:	fcf42e23          	sw	a5,-36(s0)
    143c:	fdc42783          	lw	a5,-36(s0)
    1440:	2781                	sext.w	a5,a5
    1442:	c399                	beqz	a5,1448 <init_warm_startup+0x10a>
    1444:	309190ef          	jal	1af4c <sbi_hart_hang>
    1448:	4581                	li	a1,0
    144a:	fc843503          	ld	a0,-56(s0)
    144e:	7bf000ef          	jal	240c <sbi_irqchip_init>
    1452:	87aa                	mv	a5,a0
    1454:	fcf42e23          	sw	a5,-36(s0)
    1458:	fdc42783          	lw	a5,-36(s0)
    145c:	2781                	sext.w	a5,a5
    145e:	c399                	beqz	a5,1464 <init_warm_startup+0x126>
    1460:	2ed190ef          	jal	1af4c <sbi_hart_hang>
    1464:	4581                	li	a1,0
    1466:	fc843503          	ld	a0,-56(s0)
    146a:	567000ef          	jal	21d0 <sbi_ipi_init>
    146e:	87aa                	mv	a5,a0
    1470:	fcf42e23          	sw	a5,-36(s0)
    1474:	fdc42783          	lw	a5,-36(s0)
    1478:	2781                	sext.w	a5,a5
    147a:	c399                	beqz	a5,1480 <init_warm_startup+0x142>
    147c:	2d1190ef          	jal	1af4c <sbi_hart_hang>
    1480:	4581                	li	a1,0
    1482:	fc843503          	ld	a0,-56(s0)
    1486:	742080ef          	jal	9bc8 <sbi_tlb_init>
    148a:	87aa                	mv	a5,a0
    148c:	fcf42e23          	sw	a5,-36(s0)
    1490:	fdc42783          	lw	a5,-36(s0)
    1494:	2781                	sext.w	a5,a5
    1496:	c399                	beqz	a5,149c <init_warm_startup+0x15e>
    1498:	2b5190ef          	jal	1af4c <sbi_hart_hang>
    149c:	4581                	li	a1,0
    149e:	fc843503          	ld	a0,-56(s0)
    14a2:	39d070ef          	jal	903e <sbi_timer_init>
    14a6:	87aa                	mv	a5,a0
    14a8:	fcf42e23          	sw	a5,-36(s0)
    14ac:	fdc42783          	lw	a5,-36(s0)
    14b0:	2781                	sext.w	a5,a5
    14b2:	c399                	beqz	a5,14b8 <init_warm_startup+0x17a>
    14b4:	299190ef          	jal	1af4c <sbi_hart_hang>
    14b8:	4581                	li	a1,0
    14ba:	fc843503          	ld	a0,-56(s0)
    14be:	15d140ef          	jal	15e1a <sbi_fwft_init>
    14c2:	87aa                	mv	a5,a0
    14c4:	fcf42e23          	sw	a5,-36(s0)
    14c8:	fdc42783          	lw	a5,-36(s0)
    14cc:	2781                	sext.w	a5,a5
    14ce:	c399                	beqz	a5,14d4 <init_warm_startup+0x196>
    14d0:	27d190ef          	jal	1af4c <sbi_hart_hang>
    14d4:	4581                	li	a1,0
    14d6:	fe843503          	ld	a0,-24(s0)
    14da:	c02ff0ef          	jal	8dc <sbi_platform_final_init>
    14de:	87aa                	mv	a5,a0
    14e0:	fcf42e23          	sw	a5,-36(s0)
    14e4:	fdc42783          	lw	a5,-36(s0)
    14e8:	2781                	sext.w	a5,a5
    14ea:	c399                	beqz	a5,14f0 <init_warm_startup+0x1b2>
    14ec:	261190ef          	jal	1af4c <sbi_hart_hang>
    14f0:	fc843503          	ld	a0,-56(s0)
    14f4:	24d150ef          	jal	16f40 <sbi_hart_pmp_configure>
    14f8:	87aa                	mv	a5,a0
    14fa:	fcf42e23          	sw	a5,-36(s0)
    14fe:	fdc42783          	lw	a5,-36(s0)
    1502:	2781                	sext.w	a5,a5
    1504:	c399                	beqz	a5,150a <init_warm_startup+0x1cc>
    1506:	247190ef          	jal	1af4c <sbi_hart_hang>
    150a:	00082797          	auipc	a5,0x82
    150e:	b0678793          	addi	a5,a5,-1274 # 83010 <init_count_offset>
    1512:	639c                	ld	a5,0(a5)
    1514:	fc843703          	ld	a4,-56(s0)
    1518:	97ba                	add	a5,a5,a4
    151a:	fef43023          	sd	a5,-32(s0)
    151e:	fe043783          	ld	a5,-32(s0)
    1522:	639c                	ld	a5,0(a5)
    1524:	00178713          	addi	a4,a5,1
    1528:	fe043783          	ld	a5,-32(s0)
    152c:	e398                	sd	a4,0(a5)
    152e:	fc442783          	lw	a5,-60(s0)
    1532:	85be                	mv	a1,a5
    1534:	fc843503          	ld	a0,-56(s0)
    1538:	1451a0ef          	jal	1be7c <sbi_hsm_hart_start_finish>

000000000000153c <init_warm_resume>:
    153c:	7179                	addi	sp,sp,-48
    153e:	f406                	sd	ra,40(sp)
    1540:	f022                	sd	s0,32(sp)
    1542:	1800                	addi	s0,sp,48
    1544:	fca43c23          	sd	a0,-40(s0)
    1548:	87ae                	mv	a5,a1
    154a:	fcf42a23          	sw	a5,-44(s0)
    154e:	fd843503          	ld	a0,-40(s0)
    1552:	1c81b0ef          	jal	1c71a <sbi_hsm_hart_resume_start>
    1556:	fd843503          	ld	a0,-40(s0)
    155a:	101190ef          	jal	1ae5a <sbi_hart_reinit>
    155e:	87aa                	mv	a5,a0
    1560:	fef42623          	sw	a5,-20(s0)
    1564:	fec42783          	lw	a5,-20(s0)
    1568:	2781                	sext.w	a5,a5
    156a:	c399                	beqz	a5,1570 <init_warm_resume+0x34>
    156c:	1e1190ef          	jal	1af4c <sbi_hart_hang>
    1570:	fd843503          	ld	a0,-40(s0)
    1574:	1cd150ef          	jal	16f40 <sbi_hart_pmp_configure>
    1578:	87aa                	mv	a5,a0
    157a:	fef42623          	sw	a5,-20(s0)
    157e:	fec42783          	lw	a5,-20(s0)
    1582:	2781                	sext.w	a5,a5
    1584:	c399                	beqz	a5,158a <init_warm_resume+0x4e>
    1586:	1c7190ef          	jal	1af4c <sbi_hart_hang>
    158a:	fd442783          	lw	a5,-44(s0)
    158e:	85be                	mv	a1,a5
    1590:	fd843503          	ld	a0,-40(s0)
    1594:	1fe1b0ef          	jal	1c792 <sbi_hsm_hart_resume_finish>

0000000000001598 <init_warmboot>:
    1598:	7179                	addi	sp,sp,-48
    159a:	f406                	sd	ra,40(sp)
    159c:	f022                	sd	s0,32(sp)
    159e:	1800                	addi	s0,sp,48
    15a0:	fca43c23          	sd	a0,-40(s0)
    15a4:	87ae                	mv	a5,a1
    15a6:	fcf42a23          	sw	a5,-44(s0)
    15aa:	fd442783          	lw	a5,-44(s0)
    15ae:	85be                	mv	a1,a5
    15b0:	fd843503          	ld	a0,-40(s0)
    15b4:	925ff0ef          	jal	ed8 <wait_for_coldboot>
    15b8:	f14027f3          	csrr	a5,mhartid
    15bc:	80be                	mv	ra,a5
    15be:	8786                	mv	a5,ra
    15c0:	2781                	sext.w	a5,a5
    15c2:	853e                	mv	a0,a5
    15c4:	2c5040ef          	jal	6088 <sbi_hartid_to_hartindex>
    15c8:	87aa                	mv	a5,a0
    15ca:	2781                	sext.w	a5,a5
    15cc:	853e                	mv	a0,a5
    15ce:	076120ef          	jal	13644 <sbi_hartindex_to_domain>
    15d2:	872a                	mv	a4,a0
    15d4:	fd442783          	lw	a5,-44(s0)
    15d8:	85be                	mv	a1,a5
    15da:	853a                	mv	a0,a4
    15dc:	7161a0ef          	jal	1bcf2 <sbi_hsm_hart_get_state>
    15e0:	87aa                	mv	a5,a0
    15e2:	fef42623          	sw	a5,-20(s0)
    15e6:	fec42783          	lw	a5,-20(s0)
    15ea:	2781                	sext.w	a5,a5
    15ec:	0007d463          	bgez	a5,15f4 <init_warmboot+0x5c>
    15f0:	15d190ef          	jal	1af4c <sbi_hart_hang>
    15f4:	fec42783          	lw	a5,-20(s0)
    15f8:	0007871b          	sext.w	a4,a5
    15fc:	4791                	li	a5,4
    15fe:	00f71963          	bne	a4,a5,1610 <init_warmboot+0x78>
    1602:	fd442783          	lw	a5,-44(s0)
    1606:	85be                	mv	a1,a5
    1608:	fd843503          	ld	a0,-40(s0)
    160c:	f31ff0ef          	jal	153c <init_warm_resume>
    1610:	fd442783          	lw	a5,-44(s0)
    1614:	853e                	mv	a0,a5
    1616:	273040ef          	jal	6088 <sbi_hartid_to_hartindex>
    161a:	87aa                	mv	a5,a0
    161c:	2781                	sext.w	a5,a5
    161e:	853e                	mv	a0,a5
    1620:	31b000ef          	jal	213a <sbi_ipi_raw_clear>
    1624:	fd442783          	lw	a5,-44(s0)
    1628:	85be                	mv	a1,a5
    162a:	fd843503          	ld	a0,-40(s0)
    162e:	d11ff0ef          	jal	133e <init_warm_startup>

0000000000001632 <sbi_init>:
    1632:	715d                	addi	sp,sp,-80
    1634:	e486                	sd	ra,72(sp)
    1636:	e0a2                	sd	s0,64(sp)
    1638:	0880                	addi	s0,sp,80
    163a:	faa43c23          	sd	a0,-72(s0)
    163e:	fe042423          	sw	zero,-24(s0)
    1642:	fe042223          	sw	zero,-28(s0)
    1646:	fe042023          	sw	zero,-32(s0)
    164a:	f14027f3          	csrr	a5,mhartid
    164e:	80be                	mv	ra,a5
    1650:	8786                	mv	a5,ra
    1652:	fcf42e23          	sw	a5,-36(s0)
    1656:	fb843783          	ld	a5,-72(s0)
    165a:	67bc                	ld	a5,72(a5)
    165c:	fcf43823          	sd	a5,-48(s0)
    1660:	fe042623          	sw	zero,-20(s0)
    1664:	a099                	j	16aa <sbi_init+0x78>
    1666:	fd043783          	ld	a5,-48(s0)
    166a:	7bbc                	ld	a5,112(a5)
    166c:	cb91                	beqz	a5,1680 <sbi_init+0x4e>
    166e:	fd043783          	ld	a5,-48(s0)
    1672:	7bb8                	ld	a4,112(a5)
    1674:	fec46783          	lwu	a5,-20(s0)
    1678:	078a                	slli	a5,a5,0x2
    167a:	97ba                	add	a5,a5,a4
    167c:	439c                	lw	a5,0(a5)
    167e:	a019                	j	1684 <sbi_init+0x52>
    1680:	fec42783          	lw	a5,-20(s0)
    1684:	fcf42623          	sw	a5,-52(s0)
    1688:	fcc42783          	lw	a5,-52(s0)
    168c:	873e                	mv	a4,a5
    168e:	fdc42783          	lw	a5,-36(s0)
    1692:	2701                	sext.w	a4,a4
    1694:	2781                	sext.w	a5,a5
    1696:	00f71563          	bne	a4,a5,16a0 <sbi_init+0x6e>
    169a:	4785                	li	a5,1
    169c:	fef42423          	sw	a5,-24(s0)
    16a0:	fec42783          	lw	a5,-20(s0)
    16a4:	2785                	addiw	a5,a5,1
    16a6:	fef42623          	sw	a5,-20(s0)
    16aa:	fd043783          	ld	a5,-48(s0)
    16ae:	4bb8                	lw	a4,80(a5)
    16b0:	fec42783          	lw	a5,-20(s0)
    16b4:	2781                	sext.w	a5,a5
    16b6:	fae7e8e3          	bltu	a5,a4,1666 <sbi_init+0x34>
    16ba:	fe842783          	lw	a5,-24(s0)
    16be:	2781                	sext.w	a5,a5
    16c0:	e399                	bnez	a5,16c6 <sbi_init+0x94>
    16c2:	08b190ef          	jal	1af4c <sbi_hart_hang>
    16c6:	fb843783          	ld	a5,-72(s0)
    16ca:	7f9c                	ld	a5,56(a5)
    16cc:	470d                	li	a4,3
    16ce:	00e78a63          	beq	a5,a4,16e2 <sbi_init+0xb0>
    16d2:	470d                	li	a4,3
    16d4:	02f76f63          	bltu	a4,a5,1712 <sbi_init+0xe0>
    16d8:	c39d                	beqz	a5,16fe <sbi_init+0xcc>
    16da:	4705                	li	a4,1
    16dc:	00e78763          	beq	a5,a4,16ea <sbi_init+0xb8>
    16e0:	a80d                	j	1712 <sbi_init+0xe0>
    16e2:	4785                	li	a5,1
    16e4:	fef42223          	sw	a5,-28(s0)
    16e8:	a815                	j	171c <sbi_init+0xea>
    16ea:	05300513          	li	a0,83
    16ee:	7e90b0ef          	jal	d6d6 <misa_extension_imp>
    16f2:	87aa                	mv	a5,a0
    16f4:	c38d                	beqz	a5,1716 <sbi_init+0xe4>
    16f6:	4785                	li	a5,1
    16f8:	fef42223          	sw	a5,-28(s0)
    16fc:	a829                	j	1716 <sbi_init+0xe4>
    16fe:	05500513          	li	a0,85
    1702:	7d50b0ef          	jal	d6d6 <misa_extension_imp>
    1706:	87aa                	mv	a5,a0
    1708:	cb89                	beqz	a5,171a <sbi_init+0xe8>
    170a:	4785                	li	a5,1
    170c:	fef42223          	sw	a5,-28(s0)
    1710:	a029                	j	171a <sbi_init+0xe8>
    1712:	03b190ef          	jal	1af4c <sbi_hart_hang>
    1716:	0001                	nop
    1718:	a011                	j	171c <sbi_init+0xea>
    171a:	0001                	nop
    171c:	fdc42783          	lw	a5,-36(s0)
    1720:	85be                	mv	a1,a5
    1722:	fd043503          	ld	a0,-48(s0)
    1726:	8fcff0ef          	jal	822 <sbi_platform_cold_boot_allowed>
    172a:	87aa                	mv	a5,a0
    172c:	c38d                	beqz	a5,174e <sbi_init+0x11c>
    172e:	fe442783          	lw	a5,-28(s0)
    1732:	2781                	sext.w	a5,a5
    1734:	cf89                	beqz	a5,174e <sbi_init+0x11c>
    1736:	4585                	li	a1,1
    1738:	00082517          	auipc	a0,0x82
    173c:	8e050513          	addi	a0,a0,-1824 # 83018 <coldboot_lottery>
    1740:	45d0d0ef          	jal	f39c <atomic_xchg>
    1744:	87aa                	mv	a5,a0
    1746:	e781                	bnez	a5,174e <sbi_init+0x11c>
    1748:	4785                	li	a5,1
    174a:	fef42023          	sw	a5,-32(s0)
    174e:	fd043503          	ld	a0,-48(s0)
    1752:	912ff0ef          	jal	864 <sbi_platform_nascent_init>
    1756:	87aa                	mv	a5,a0
    1758:	c399                	beqz	a5,175e <sbi_init+0x12c>
    175a:	7f2190ef          	jal	1af4c <sbi_hart_hang>
    175e:	fe042783          	lw	a5,-32(s0)
    1762:	2781                	sext.w	a5,a5
    1764:	cb81                	beqz	a5,1774 <sbi_init+0x142>
    1766:	fdc42783          	lw	a5,-36(s0)
    176a:	85be                	mv	a1,a5
    176c:	fb843503          	ld	a0,-72(s0)
    1770:	fccff0ef          	jal	f3c <init_coldboot>
    1774:	fdc42783          	lw	a5,-36(s0)
    1778:	85be                	mv	a1,a5
    177a:	fb843503          	ld	a0,-72(s0)
    177e:	e1bff0ef          	jal	1598 <init_warmboot>

0000000000001782 <sbi_entry_count>:
    1782:	7179                	addi	sp,sp,-48
    1784:	f406                	sd	ra,40(sp)
    1786:	f022                	sd	s0,32(sp)
    1788:	1800                	addi	s0,sp,48
    178a:	87aa                	mv	a5,a0
    178c:	fcf42e23          	sw	a5,-36(s0)
    1790:	00082797          	auipc	a5,0x82
    1794:	87878793          	addi	a5,a5,-1928 # 83008 <entry_count_offset>
    1798:	639c                	ld	a5,0(a5)
    179a:	e399                	bnez	a5,17a0 <sbi_entry_count+0x1e>
    179c:	4781                	li	a5,0
    179e:	a0b5                	j	180a <sbi_entry_count+0x88>
    17a0:	fdc42783          	lw	a5,-36(s0)
    17a4:	853e                	mv	a0,a5
    17a6:	0e3040ef          	jal	6088 <sbi_hartid_to_hartindex>
    17aa:	87aa                	mv	a5,a0
    17ac:	0007871b          	sext.w	a4,a5
    17b0:	00081797          	auipc	a5,0x81
    17b4:	fc87b783          	ld	a5,-56(a5) # 82778 <_GLOBAL_OFFSET_TABLE_+0x18>
    17b8:	439c                	lw	a5,0(a5)
    17ba:	02e7e363          	bltu	a5,a4,17e0 <sbi_entry_count+0x5e>
    17be:	fdc42783          	lw	a5,-36(s0)
    17c2:	853e                	mv	a0,a5
    17c4:	0c5040ef          	jal	6088 <sbi_hartid_to_hartindex>
    17c8:	87aa                	mv	a5,a0
    17ca:	2781                	sext.w	a5,a5
    17cc:	00081717          	auipc	a4,0x81
    17d0:	05c73703          	ld	a4,92(a4) # 82828 <_GLOBAL_OFFSET_TABLE_+0xc8>
    17d4:	1782                	slli	a5,a5,0x20
    17d6:	9381                	srli	a5,a5,0x20
    17d8:	078e                	slli	a5,a5,0x3
    17da:	97ba                	add	a5,a5,a4
    17dc:	639c                	ld	a5,0(a5)
    17de:	a011                	j	17e2 <sbi_entry_count+0x60>
    17e0:	4781                	li	a5,0
    17e2:	fef43423          	sd	a5,-24(s0)
    17e6:	fe843783          	ld	a5,-24(s0)
    17ea:	e399                	bnez	a5,17f0 <sbi_entry_count+0x6e>
    17ec:	4781                	li	a5,0
    17ee:	a831                	j	180a <sbi_entry_count+0x88>
    17f0:	00082797          	auipc	a5,0x82
    17f4:	81878793          	addi	a5,a5,-2024 # 83008 <entry_count_offset>
    17f8:	639c                	ld	a5,0(a5)
    17fa:	fe843703          	ld	a4,-24(s0)
    17fe:	97ba                	add	a5,a5,a4
    1800:	fef43023          	sd	a5,-32(s0)
    1804:	fe043783          	ld	a5,-32(s0)
    1808:	639c                	ld	a5,0(a5)
    180a:	853e                	mv	a0,a5
    180c:	70a2                	ld	ra,40(sp)
    180e:	7402                	ld	s0,32(sp)
    1810:	6145                	addi	sp,sp,48
    1812:	8082                	ret

0000000000001814 <sbi_init_count>:
    1814:	7179                	addi	sp,sp,-48
    1816:	f406                	sd	ra,40(sp)
    1818:	f022                	sd	s0,32(sp)
    181a:	1800                	addi	s0,sp,48
    181c:	87aa                	mv	a5,a0
    181e:	fcf42e23          	sw	a5,-36(s0)
    1822:	00081797          	auipc	a5,0x81
    1826:	7ee78793          	addi	a5,a5,2030 # 83010 <init_count_offset>
    182a:	639c                	ld	a5,0(a5)
    182c:	e399                	bnez	a5,1832 <sbi_init_count+0x1e>
    182e:	4781                	li	a5,0
    1830:	a0b5                	j	189c <sbi_init_count+0x88>
    1832:	fdc42783          	lw	a5,-36(s0)
    1836:	853e                	mv	a0,a5
    1838:	051040ef          	jal	6088 <sbi_hartid_to_hartindex>
    183c:	87aa                	mv	a5,a0
    183e:	0007871b          	sext.w	a4,a5
    1842:	00081797          	auipc	a5,0x81
    1846:	f367b783          	ld	a5,-202(a5) # 82778 <_GLOBAL_OFFSET_TABLE_+0x18>
    184a:	439c                	lw	a5,0(a5)
    184c:	02e7e363          	bltu	a5,a4,1872 <sbi_init_count+0x5e>
    1850:	fdc42783          	lw	a5,-36(s0)
    1854:	853e                	mv	a0,a5
    1856:	033040ef          	jal	6088 <sbi_hartid_to_hartindex>
    185a:	87aa                	mv	a5,a0
    185c:	2781                	sext.w	a5,a5
    185e:	00081717          	auipc	a4,0x81
    1862:	fca73703          	ld	a4,-54(a4) # 82828 <_GLOBAL_OFFSET_TABLE_+0xc8>
    1866:	1782                	slli	a5,a5,0x20
    1868:	9381                	srli	a5,a5,0x20
    186a:	078e                	slli	a5,a5,0x3
    186c:	97ba                	add	a5,a5,a4
    186e:	639c                	ld	a5,0(a5)
    1870:	a011                	j	1874 <sbi_init_count+0x60>
    1872:	4781                	li	a5,0
    1874:	fef43423          	sd	a5,-24(s0)
    1878:	fe843783          	ld	a5,-24(s0)
    187c:	e399                	bnez	a5,1882 <sbi_init_count+0x6e>
    187e:	4781                	li	a5,0
    1880:	a831                	j	189c <sbi_init_count+0x88>
    1882:	00081797          	auipc	a5,0x81
    1886:	78e78793          	addi	a5,a5,1934 # 83010 <init_count_offset>
    188a:	639c                	ld	a5,0(a5)
    188c:	fe843703          	ld	a4,-24(s0)
    1890:	97ba                	add	a5,a5,a4
    1892:	fef43023          	sd	a5,-32(s0)
    1896:	fe043783          	ld	a5,-32(s0)
    189a:	639c                	ld	a5,0(a5)
    189c:	853e                	mv	a0,a5
    189e:	70a2                	ld	ra,40(sp)
    18a0:	7402                	ld	s0,32(sp)
    18a2:	6145                	addi	sp,sp,48
    18a4:	8082                	ret

00000000000018a6 <sbi_exit>:
    18a6:	7179                	addi	sp,sp,-48
    18a8:	f406                	sd	ra,40(sp)
    18aa:	f022                	sd	s0,32(sp)
    18ac:	1800                	addi	s0,sp,48
    18ae:	fca43c23          	sd	a0,-40(s0)
    18b2:	f14027f3          	csrr	a5,mhartid
    18b6:	80be                	mv	ra,a5
    18b8:	8786                	mv	a5,ra
    18ba:	fef42623          	sw	a5,-20(s0)
    18be:	fd843783          	ld	a5,-40(s0)
    18c2:	67bc                	ld	a5,72(a5)
    18c4:	fef43023          	sd	a5,-32(s0)
    18c8:	fec42783          	lw	a5,-20(s0)
    18cc:	853e                	mv	a0,a5
    18ce:	7ba040ef          	jal	6088 <sbi_hartid_to_hartindex>
    18d2:	87aa                	mv	a5,a0
    18d4:	0007871b          	sext.w	a4,a5
    18d8:	00081797          	auipc	a5,0x81
    18dc:	ea07b783          	ld	a5,-352(a5) # 82778 <_GLOBAL_OFFSET_TABLE_+0x18>
    18e0:	439c                	lw	a5,0(a5)
    18e2:	00e7f463          	bgeu	a5,a4,18ea <sbi_exit+0x44>
    18e6:	666190ef          	jal	1af4c <sbi_hart_hang>
    18ea:	fe043503          	ld	a0,-32(s0)
    18ee:	830ff0ef          	jal	91e <sbi_platform_early_exit>
    18f2:	fd843503          	ld	a0,-40(s0)
    18f6:	6a2060ef          	jal	7f98 <sbi_sse_exit>
    18fa:	fd843503          	ld	a0,-40(s0)
    18fe:	639020ef          	jal	4736 <sbi_pmu_exit>
    1902:	fd843503          	ld	a0,-40(s0)
    1906:	7ea070ef          	jal	90f0 <sbi_timer_exit>
    190a:	fd843503          	ld	a0,-40(s0)
    190e:	201000ef          	jal	230e <sbi_ipi_exit>
    1912:	fd843503          	ld	a0,-40(s0)
    1916:	369000ef          	jal	247e <sbi_irqchip_exit>
    191a:	fe043503          	ld	a0,-32(s0)
    191e:	830ff0ef          	jal	94e <sbi_platform_final_exit>
    1922:	fd843503          	ld	a0,-40(s0)
    1926:	1751a0ef          	jal	1c29a <sbi_hsm_exit>

000000000000192a <__set_bit>:
    192a:	7179                	addi	sp,sp,-48
    192c:	f422                	sd	s0,40(sp)
    192e:	1800                	addi	s0,sp,48
    1930:	87aa                	mv	a5,a0
    1932:	fcb43823          	sd	a1,-48(s0)
    1936:	fcf42e23          	sw	a5,-36(s0)
    193a:	fdc42783          	lw	a5,-36(s0)
    193e:	03f7f793          	andi	a5,a5,63
    1942:	2781                	sext.w	a5,a5
    1944:	873e                	mv	a4,a5
    1946:	4785                	li	a5,1
    1948:	00e797b3          	sll	a5,a5,a4
    194c:	fef43423          	sd	a5,-24(s0)
    1950:	fdc42783          	lw	a5,-36(s0)
    1954:	41f7d71b          	sraiw	a4,a5,0x1f
    1958:	01a7571b          	srliw	a4,a4,0x1a
    195c:	9fb9                	addw	a5,a5,a4
    195e:	4067d79b          	sraiw	a5,a5,0x6
    1962:	2781                	sext.w	a5,a5
    1964:	078e                	slli	a5,a5,0x3
    1966:	fd043703          	ld	a4,-48(s0)
    196a:	97ba                	add	a5,a5,a4
    196c:	fef43023          	sd	a5,-32(s0)
    1970:	fe043783          	ld	a5,-32(s0)
    1974:	6398                	ld	a4,0(a5)
    1976:	fe843783          	ld	a5,-24(s0)
    197a:	8f5d                	or	a4,a4,a5
    197c:	fe043783          	ld	a5,-32(s0)
    1980:	e398                	sd	a4,0(a5)
    1982:	0001                	nop
    1984:	7422                	ld	s0,40(sp)
    1986:	6145                	addi	sp,sp,48
    1988:	8082                	ret

000000000000198a <__clear_bit>:
    198a:	7179                	addi	sp,sp,-48
    198c:	f422                	sd	s0,40(sp)
    198e:	1800                	addi	s0,sp,48
    1990:	87aa                	mv	a5,a0
    1992:	fcb43823          	sd	a1,-48(s0)
    1996:	fcf42e23          	sw	a5,-36(s0)
    199a:	fdc42783          	lw	a5,-36(s0)
    199e:	03f7f793          	andi	a5,a5,63
    19a2:	2781                	sext.w	a5,a5
    19a4:	873e                	mv	a4,a5
    19a6:	4785                	li	a5,1
    19a8:	00e797b3          	sll	a5,a5,a4
    19ac:	fef43423          	sd	a5,-24(s0)
    19b0:	fdc42783          	lw	a5,-36(s0)
    19b4:	41f7d71b          	sraiw	a4,a5,0x1f
    19b8:	01a7571b          	srliw	a4,a4,0x1a
    19bc:	9fb9                	addw	a5,a5,a4
    19be:	4067d79b          	sraiw	a5,a5,0x6
    19c2:	2781                	sext.w	a5,a5
    19c4:	078e                	slli	a5,a5,0x3
    19c6:	fd043703          	ld	a4,-48(s0)
    19ca:	97ba                	add	a5,a5,a4
    19cc:	fef43023          	sd	a5,-32(s0)
    19d0:	fe043783          	ld	a5,-32(s0)
    19d4:	6398                	ld	a4,0(a5)
    19d6:	fe843783          	ld	a5,-24(s0)
    19da:	fff7c793          	not	a5,a5
    19de:	8f7d                	and	a4,a4,a5
    19e0:	fe043783          	ld	a5,-32(s0)
    19e4:	e398                	sd	a4,0(a5)
    19e6:	0001                	nop
    19e8:	7422                	ld	s0,40(sp)
    19ea:	6145                	addi	sp,sp,48
    19ec:	8082                	ret

00000000000019ee <sbi_hartmask_set_hartindex>:
    19ee:	1101                	addi	sp,sp,-32
    19f0:	ec06                	sd	ra,24(sp)
    19f2:	e822                	sd	s0,16(sp)
    19f4:	1000                	addi	s0,sp,32
    19f6:	87aa                	mv	a5,a0
    19f8:	feb43023          	sd	a1,-32(s0)
    19fc:	fef42623          	sw	a5,-20(s0)
    1a00:	fec42783          	lw	a5,-20(s0)
    1a04:	0007871b          	sext.w	a4,a5
    1a08:	07f00793          	li	a5,127
    1a0c:	00e7ea63          	bltu	a5,a4,1a20 <sbi_hartmask_set_hartindex+0x32>
    1a10:	fec42783          	lw	a5,-20(s0)
    1a14:	fe043703          	ld	a4,-32(s0)
    1a18:	85ba                	mv	a1,a4
    1a1a:	853e                	mv	a0,a5
    1a1c:	f0fff0ef          	jal	192a <__set_bit>
    1a20:	0001                	nop
    1a22:	60e2                	ld	ra,24(sp)
    1a24:	6442                	ld	s0,16(sp)
    1a26:	6105                	addi	sp,sp,32
    1a28:	8082                	ret

0000000000001a2a <sbi_hartmask_set_hartid>:
    1a2a:	1101                	addi	sp,sp,-32
    1a2c:	ec06                	sd	ra,24(sp)
    1a2e:	e822                	sd	s0,16(sp)
    1a30:	1000                	addi	s0,sp,32
    1a32:	87aa                	mv	a5,a0
    1a34:	feb43023          	sd	a1,-32(s0)
    1a38:	fef42623          	sw	a5,-20(s0)
    1a3c:	fec42783          	lw	a5,-20(s0)
    1a40:	853e                	mv	a0,a5
    1a42:	646040ef          	jal	6088 <sbi_hartid_to_hartindex>
    1a46:	87aa                	mv	a5,a0
    1a48:	2781                	sext.w	a5,a5
    1a4a:	fe043583          	ld	a1,-32(s0)
    1a4e:	853e                	mv	a0,a5
    1a50:	f9fff0ef          	jal	19ee <sbi_hartmask_set_hartindex>
    1a54:	0001                	nop
    1a56:	60e2                	ld	ra,24(sp)
    1a58:	6442                	ld	s0,16(sp)
    1a5a:	6105                	addi	sp,sp,32
    1a5c:	8082                	ret

0000000000001a5e <sbi_hartmask_clear_hartindex>:
    1a5e:	1101                	addi	sp,sp,-32
    1a60:	ec06                	sd	ra,24(sp)
    1a62:	e822                	sd	s0,16(sp)
    1a64:	1000                	addi	s0,sp,32
    1a66:	87aa                	mv	a5,a0
    1a68:	feb43023          	sd	a1,-32(s0)
    1a6c:	fef42623          	sw	a5,-20(s0)
    1a70:	fec42783          	lw	a5,-20(s0)
    1a74:	0007871b          	sext.w	a4,a5
    1a78:	07f00793          	li	a5,127
    1a7c:	00e7ea63          	bltu	a5,a4,1a90 <sbi_hartmask_clear_hartindex+0x32>
    1a80:	fec42783          	lw	a5,-20(s0)
    1a84:	fe043703          	ld	a4,-32(s0)
    1a88:	85ba                	mv	a1,a4
    1a8a:	853e                	mv	a0,a5
    1a8c:	effff0ef          	jal	198a <__clear_bit>
    1a90:	0001                	nop
    1a92:	60e2                	ld	ra,24(sp)
    1a94:	6442                	ld	s0,16(sp)
    1a96:	6105                	addi	sp,sp,32
    1a98:	8082                	ret

0000000000001a9a <sbi_platform_ipi_init>:
    1a9a:	1101                	addi	sp,sp,-32
    1a9c:	ec06                	sd	ra,24(sp)
    1a9e:	e822                	sd	s0,16(sp)
    1aa0:	1000                	addi	s0,sp,32
    1aa2:	fea43423          	sd	a0,-24(s0)
    1aa6:	87ae                	mv	a5,a1
    1aa8:	fef42223          	sw	a5,-28(s0)
    1aac:	fe843783          	ld	a5,-24(s0)
    1ab0:	c385                	beqz	a5,1ad0 <sbi_platform_ipi_init+0x36>
    1ab2:	fe843783          	ld	a5,-24(s0)
    1ab6:	73bc                	ld	a5,96(a5)
    1ab8:	7bbc                	ld	a5,112(a5)
    1aba:	cb99                	beqz	a5,1ad0 <sbi_platform_ipi_init+0x36>
    1abc:	fe843783          	ld	a5,-24(s0)
    1ac0:	73bc                	ld	a5,96(a5)
    1ac2:	7bbc                	ld	a5,112(a5)
    1ac4:	fe442703          	lw	a4,-28(s0)
    1ac8:	853a                	mv	a0,a4
    1aca:	9782                	jalr	a5
    1acc:	87aa                	mv	a5,a0
    1ace:	a011                	j	1ad2 <sbi_platform_ipi_init+0x38>
    1ad0:	4781                	li	a5,0
    1ad2:	853e                	mv	a0,a5
    1ad4:	60e2                	ld	ra,24(sp)
    1ad6:	6442                	ld	s0,16(sp)
    1ad8:	6105                	addi	sp,sp,32
    1ada:	8082                	ret

0000000000001adc <sbi_platform_ipi_exit>:
    1adc:	1101                	addi	sp,sp,-32
    1ade:	ec06                	sd	ra,24(sp)
    1ae0:	e822                	sd	s0,16(sp)
    1ae2:	1000                	addi	s0,sp,32
    1ae4:	fea43423          	sd	a0,-24(s0)
    1ae8:	fe843783          	ld	a5,-24(s0)
    1aec:	cb99                	beqz	a5,1b02 <sbi_platform_ipi_exit+0x26>
    1aee:	fe843783          	ld	a5,-24(s0)
    1af2:	73bc                	ld	a5,96(a5)
    1af4:	7fbc                	ld	a5,120(a5)
    1af6:	c791                	beqz	a5,1b02 <sbi_platform_ipi_exit+0x26>
    1af8:	fe843783          	ld	a5,-24(s0)
    1afc:	73bc                	ld	a5,96(a5)
    1afe:	7fbc                	ld	a5,120(a5)
    1b00:	9782                	jalr	a5
    1b02:	0001                	nop
    1b04:	60e2                	ld	ra,24(sp)
    1b06:	6442                	ld	s0,16(sp)
    1b08:	6105                	addi	sp,sp,32
    1b0a:	8082                	ret

0000000000001b0c <sbi_ipi_send>:
    1b0c:	715d                	addi	sp,sp,-80
    1b0e:	e486                	sd	ra,72(sp)
    1b10:	e0a2                	sd	s0,64(sp)
    1b12:	0880                	addi	s0,sp,80
    1b14:	fca43423          	sd	a0,-56(s0)
    1b18:	87ae                	mv	a5,a1
    1b1a:	8732                	mv	a4,a2
    1b1c:	fad43c23          	sd	a3,-72(s0)
    1b20:	fcf42223          	sw	a5,-60(s0)
    1b24:	87ba                	mv	a5,a4
    1b26:	fcf42023          	sw	a5,-64(s0)
    1b2a:	fe042623          	sw	zero,-20(s0)
    1b2e:	fe043023          	sd	zero,-32(s0)
    1b32:	fc042783          	lw	a5,-64(s0)
    1b36:	0007871b          	sext.w	a4,a5
    1b3a:	03f00793          	li	a5,63
    1b3e:	00e7ec63          	bltu	a5,a4,1b56 <sbi_ipi_send+0x4a>
    1b42:	00081717          	auipc	a4,0x81
    1b46:	4ee70713          	addi	a4,a4,1262 # 83030 <ipi_ops_array>
    1b4a:	fc046783          	lwu	a5,-64(s0)
    1b4e:	078e                	slli	a5,a5,0x3
    1b50:	97ba                	add	a5,a5,a4
    1b52:	639c                	ld	a5,0(a5)
    1b54:	e399                	bnez	a5,1b5a <sbi_ipi_send+0x4e>
    1b56:	57f5                	li	a5,-3
    1b58:	a0dd                	j	1c3e <sbi_ipi_send+0x132>
    1b5a:	00081717          	auipc	a4,0x81
    1b5e:	4d670713          	addi	a4,a4,1238 # 83030 <ipi_ops_array>
    1b62:	fc046783          	lwu	a5,-64(s0)
    1b66:	078e                	slli	a5,a5,0x3
    1b68:	97ba                	add	a5,a5,a4
    1b6a:	639c                	ld	a5,0(a5)
    1b6c:	fcf43c23          	sd	a5,-40(s0)
    1b70:	00081797          	auipc	a5,0x81
    1b74:	c087b783          	ld	a5,-1016(a5) # 82778 <_GLOBAL_OFFSET_TABLE_+0x18>
    1b78:	4398                	lw	a4,0(a5)
    1b7a:	fc442783          	lw	a5,-60(s0)
    1b7e:	2781                	sext.w	a5,a5
    1b80:	00f76c63          	bltu	a4,a5,1b98 <sbi_ipi_send+0x8c>
    1b84:	00081717          	auipc	a4,0x81
    1b88:	ca473703          	ld	a4,-860(a4) # 82828 <_GLOBAL_OFFSET_TABLE_+0xc8>
    1b8c:	fc446783          	lwu	a5,-60(s0)
    1b90:	078e                	slli	a5,a5,0x3
    1b92:	97ba                	add	a5,a5,a4
    1b94:	639c                	ld	a5,0(a5)
    1b96:	a011                	j	1b9a <sbi_ipi_send+0x8e>
    1b98:	4781                	li	a5,0
    1b9a:	fef43023          	sd	a5,-32(s0)
    1b9e:	fe043783          	ld	a5,-32(s0)
    1ba2:	e399                	bnez	a5,1ba8 <sbi_ipi_send+0x9c>
    1ba4:	57f5                	li	a5,-3
    1ba6:	a861                	j	1c3e <sbi_ipi_send+0x132>
    1ba8:	00081797          	auipc	a5,0x81
    1bac:	47878793          	addi	a5,a5,1144 # 83020 <ipi_data_off>
    1bb0:	639c                	ld	a5,0(a5)
    1bb2:	fe043703          	ld	a4,-32(s0)
    1bb6:	97ba                	add	a5,a5,a4
    1bb8:	fcf43823          	sd	a5,-48(s0)
    1bbc:	fd843783          	ld	a5,-40(s0)
    1bc0:	739c                	ld	a5,32(a5)
    1bc2:	cb85                	beqz	a5,1bf2 <sbi_ipi_send+0xe6>
    1bc4:	fd843783          	ld	a5,-40(s0)
    1bc8:	739c                	ld	a5,32(a5)
    1bca:	fc442703          	lw	a4,-60(s0)
    1bce:	fb843683          	ld	a3,-72(s0)
    1bd2:	863a                	mv	a2,a4
    1bd4:	fe043583          	ld	a1,-32(s0)
    1bd8:	fc843503          	ld	a0,-56(s0)
    1bdc:	9782                	jalr	a5
    1bde:	87aa                	mv	a5,a0
    1be0:	fef42623          	sw	a5,-20(s0)
    1be4:	fec42783          	lw	a5,-20(s0)
    1be8:	2781                	sext.w	a5,a5
    1bea:	c395                	beqz	a5,1c0e <sbi_ipi_send+0x102>
    1bec:	fec42783          	lw	a5,-20(s0)
    1bf0:	a0b9                	j	1c3e <sbi_ipi_send+0x132>
    1bf2:	fc843703          	ld	a4,-56(s0)
    1bf6:	fe043783          	ld	a5,-32(s0)
    1bfa:	00f71a63          	bne	a4,a5,1c0e <sbi_ipi_send+0x102>
    1bfe:	fd843783          	ld	a5,-40(s0)
    1c02:	7b9c                	ld	a5,48(a5)
    1c04:	fc843503          	ld	a0,-56(s0)
    1c08:	9782                	jalr	a5
    1c0a:	4781                	li	a5,0
    1c0c:	a80d                	j	1c3e <sbi_ipi_send+0x132>
    1c0e:	fd043783          	ld	a5,-48(s0)
    1c12:	fc042703          	lw	a4,-64(s0)
    1c16:	86ba                	mv	a3,a4
    1c18:	4705                	li	a4,1
    1c1a:	00d716b3          	sll	a3,a4,a3
    1c1e:	40d7b72f          	amoor.d	a4,a3,(a5)
    1c22:	eb09                	bnez	a4,1c34 <sbi_ipi_send+0x128>
    1c24:	fc442783          	lw	a5,-60(s0)
    1c28:	853e                	mv	a0,a5
    1c2a:	4c0000ef          	jal	20ea <sbi_ipi_raw_send>
    1c2e:	87aa                	mv	a5,a0
    1c30:	fef42623          	sw	a5,-20(s0)
    1c34:	4519                	li	a0,6
    1c36:	71a020ef          	jal	4350 <sbi_pmu_ctr_incr_fw>
    1c3a:	fec42783          	lw	a5,-20(s0)
    1c3e:	853e                	mv	a0,a5
    1c40:	60a6                	ld	ra,72(sp)
    1c42:	6406                	ld	s0,64(sp)
    1c44:	6161                	addi	sp,sp,80
    1c46:	8082                	ret

0000000000001c48 <sbi_ipi_sync>:
    1c48:	7179                	addi	sp,sp,-48
    1c4a:	f406                	sd	ra,40(sp)
    1c4c:	f022                	sd	s0,32(sp)
    1c4e:	1800                	addi	s0,sp,48
    1c50:	fca43c23          	sd	a0,-40(s0)
    1c54:	87ae                	mv	a5,a1
    1c56:	fcf42a23          	sw	a5,-44(s0)
    1c5a:	fd442783          	lw	a5,-44(s0)
    1c5e:	0007871b          	sext.w	a4,a5
    1c62:	03f00793          	li	a5,63
    1c66:	00e7ec63          	bltu	a5,a4,1c7e <sbi_ipi_sync+0x36>
    1c6a:	00081717          	auipc	a4,0x81
    1c6e:	3c670713          	addi	a4,a4,966 # 83030 <ipi_ops_array>
    1c72:	fd446783          	lwu	a5,-44(s0)
    1c76:	078e                	slli	a5,a5,0x3
    1c78:	97ba                	add	a5,a5,a4
    1c7a:	639c                	ld	a5,0(a5)
    1c7c:	e399                	bnez	a5,1c82 <sbi_ipi_sync+0x3a>
    1c7e:	57f5                	li	a5,-3
    1c80:	a03d                	j	1cae <sbi_ipi_sync+0x66>
    1c82:	00081717          	auipc	a4,0x81
    1c86:	3ae70713          	addi	a4,a4,942 # 83030 <ipi_ops_array>
    1c8a:	fd446783          	lwu	a5,-44(s0)
    1c8e:	078e                	slli	a5,a5,0x3
    1c90:	97ba                	add	a5,a5,a4
    1c92:	639c                	ld	a5,0(a5)
    1c94:	fef43423          	sd	a5,-24(s0)
    1c98:	fe843783          	ld	a5,-24(s0)
    1c9c:	779c                	ld	a5,40(a5)
    1c9e:	c799                	beqz	a5,1cac <sbi_ipi_sync+0x64>
    1ca0:	fe843783          	ld	a5,-24(s0)
    1ca4:	779c                	ld	a5,40(a5)
    1ca6:	fd843503          	ld	a0,-40(s0)
    1caa:	9782                	jalr	a5
    1cac:	4781                	li	a5,0
    1cae:	853e                	mv	a0,a5
    1cb0:	70a2                	ld	ra,40(sp)
    1cb2:	7402                	ld	s0,32(sp)
    1cb4:	6145                	addi	sp,sp,48
    1cb6:	8082                	ret

0000000000001cb8 <sbi_ipi_send_many>:
    1cb8:	7159                	addi	sp,sp,-112
    1cba:	f486                	sd	ra,104(sp)
    1cbc:	f0a2                	sd	s0,96(sp)
    1cbe:	1880                	addi	s0,sp,112
    1cc0:	faa43423          	sd	a0,-88(s0)
    1cc4:	fab43023          	sd	a1,-96(s0)
    1cc8:	87b2                	mv	a5,a2
    1cca:	f8d43823          	sd	a3,-112(s0)
    1cce:	f8f42e23          	sw	a5,-100(s0)
    1cd2:	fe042623          	sw	zero,-20(s0)
    1cd6:	fa043c23          	sd	zero,-72(s0)
    1cda:	fc043023          	sd	zero,-64(s0)
    1cde:	f14027f3          	csrr	a5,mhartid
    1ce2:	80be                	mv	ra,a5
    1ce4:	8786                	mv	a5,ra
    1ce6:	2781                	sext.w	a5,a5
    1ce8:	853e                	mv	a0,a5
    1cea:	39e040ef          	jal	6088 <sbi_hartid_to_hartindex>
    1cee:	87aa                	mv	a5,a0
    1cf0:	2781                	sext.w	a5,a5
    1cf2:	853e                	mv	a0,a5
    1cf4:	151110ef          	jal	13644 <sbi_hartindex_to_domain>
    1cf8:	fca43c23          	sd	a0,-40(s0)
    1cfc:	340027f3          	csrr	a5,mscratch
    1d00:	80be                	mv	ra,a5
    1d02:	8786                	mv	a5,ra
    1d04:	fcf43823          	sd	a5,-48(s0)
    1d08:	fa043703          	ld	a4,-96(s0)
    1d0c:	57fd                	li	a5,-1
    1d0e:	06f70c63          	beq	a4,a5,1d86 <sbi_ipi_send_many+0xce>
    1d12:	fc840793          	addi	a5,s0,-56
    1d16:	863e                	mv	a2,a5
    1d18:	fa043583          	ld	a1,-96(s0)
    1d1c:	fd843503          	ld	a0,-40(s0)
    1d20:	06e1a0ef          	jal	1bd8e <sbi_hsm_hart_interruptible_mask>
    1d24:	87aa                	mv	a5,a0
    1d26:	fef42623          	sw	a5,-20(s0)
    1d2a:	fec42783          	lw	a5,-20(s0)
    1d2e:	2781                	sext.w	a5,a5
    1d30:	c781                	beqz	a5,1d38 <sbi_ipi_send_many+0x80>
    1d32:	fec42783          	lw	a5,-20(s0)
    1d36:	a2ad                	j	1ea0 <sbi_ipi_send_many+0x1e8>
    1d38:	fc843703          	ld	a4,-56(s0)
    1d3c:	fa843783          	ld	a5,-88(s0)
    1d40:	8ff9                	and	a5,a5,a4
    1d42:	fcf43423          	sd	a5,-56(s0)
    1d46:	fa043783          	ld	a5,-96(s0)
    1d4a:	fef43023          	sd	a5,-32(s0)
    1d4e:	a805                	j	1d7e <sbi_ipi_send_many+0xc6>
    1d50:	fc843783          	ld	a5,-56(s0)
    1d54:	8b85                	andi	a5,a5,1
    1d56:	cb91                	beqz	a5,1d6a <sbi_ipi_send_many+0xb2>
    1d58:	fe043783          	ld	a5,-32(s0)
    1d5c:	2781                	sext.w	a5,a5
    1d5e:	fb840713          	addi	a4,s0,-72
    1d62:	85ba                	mv	a1,a4
    1d64:	853e                	mv	a0,a5
    1d66:	cc5ff0ef          	jal	1a2a <sbi_hartmask_set_hartid>
    1d6a:	fe043783          	ld	a5,-32(s0)
    1d6e:	0785                	addi	a5,a5,1
    1d70:	fef43023          	sd	a5,-32(s0)
    1d74:	fc843783          	ld	a5,-56(s0)
    1d78:	8385                	srli	a5,a5,0x1
    1d7a:	fcf43423          	sd	a5,-56(s0)
    1d7e:	fc843783          	ld	a5,-56(s0)
    1d82:	f7f9                	bnez	a5,1d50 <sbi_ipi_send_many+0x98>
    1d84:	a0a5                	j	1dec <sbi_ipi_send_many+0x134>
    1d86:	fa043023          	sd	zero,-96(s0)
    1d8a:	a0b1                	j	1dd6 <sbi_ipi_send_many+0x11e>
    1d8c:	fa043783          	ld	a5,-96(s0)
    1d90:	fef43023          	sd	a5,-32(s0)
    1d94:	a805                	j	1dc4 <sbi_ipi_send_many+0x10c>
    1d96:	fc843783          	ld	a5,-56(s0)
    1d9a:	8b85                	andi	a5,a5,1
    1d9c:	cb91                	beqz	a5,1db0 <sbi_ipi_send_many+0xf8>
    1d9e:	fe043783          	ld	a5,-32(s0)
    1da2:	2781                	sext.w	a5,a5
    1da4:	fb840713          	addi	a4,s0,-72
    1da8:	85ba                	mv	a1,a4
    1daa:	853e                	mv	a0,a5
    1dac:	c7fff0ef          	jal	1a2a <sbi_hartmask_set_hartid>
    1db0:	fe043783          	ld	a5,-32(s0)
    1db4:	0785                	addi	a5,a5,1
    1db6:	fef43023          	sd	a5,-32(s0)
    1dba:	fc843783          	ld	a5,-56(s0)
    1dbe:	8385                	srli	a5,a5,0x1
    1dc0:	fcf43423          	sd	a5,-56(s0)
    1dc4:	fc843783          	ld	a5,-56(s0)
    1dc8:	f7f9                	bnez	a5,1d96 <sbi_ipi_send_many+0xde>
    1dca:	fa043783          	ld	a5,-96(s0)
    1dce:	04078793          	addi	a5,a5,64
    1dd2:	faf43023          	sd	a5,-96(s0)
    1dd6:	fc840793          	addi	a5,s0,-56
    1dda:	863e                	mv	a2,a5
    1ddc:	fa043583          	ld	a1,-96(s0)
    1de0:	fd843503          	ld	a0,-40(s0)
    1de4:	7ab190ef          	jal	1bd8e <sbi_hsm_hart_interruptible_mask>
    1de8:	87aa                	mv	a5,a0
    1dea:	d3cd                	beqz	a5,1d8c <sbi_ipi_send_many+0xd4>
    1dec:	fe042423          	sw	zero,-24(s0)
    1df0:	fb840793          	addi	a5,s0,-72
    1df4:	08000593          	li	a1,128
    1df8:	853e                	mv	a0,a5
    1dfa:	4c50f0ef          	jal	11abe <find_first_bit>
    1dfe:	fea43023          	sd	a0,-32(s0)
    1e02:	a895                	j	1e76 <sbi_ipi_send_many+0x1be>
    1e04:	fe043783          	ld	a5,-32(s0)
    1e08:	2781                	sext.w	a5,a5
    1e0a:	f9c42703          	lw	a4,-100(s0)
    1e0e:	f9043683          	ld	a3,-112(s0)
    1e12:	863a                	mv	a2,a4
    1e14:	85be                	mv	a1,a5
    1e16:	fd043503          	ld	a0,-48(s0)
    1e1a:	cf3ff0ef          	jal	1b0c <sbi_ipi_send>
    1e1e:	87aa                	mv	a5,a0
    1e20:	fef42623          	sw	a5,-20(s0)
    1e24:	fec42783          	lw	a5,-20(s0)
    1e28:	2781                	sext.w	a5,a5
    1e2a:	0607c163          	bltz	a5,1e8c <sbi_ipi_send_many+0x1d4>
    1e2e:	fec42783          	lw	a5,-20(s0)
    1e32:	0007871b          	sext.w	a4,a5
    1e36:	4789                	li	a5,2
    1e38:	00f71663          	bne	a4,a5,1e44 <sbi_ipi_send_many+0x18c>
    1e3c:	4785                	li	a5,1
    1e3e:	fef42423          	sw	a5,-24(s0)
    1e42:	a811                	j	1e56 <sbi_ipi_send_many+0x19e>
    1e44:	fe043783          	ld	a5,-32(s0)
    1e48:	2781                	sext.w	a5,a5
    1e4a:	fb840713          	addi	a4,s0,-72
    1e4e:	85ba                	mv	a1,a4
    1e50:	853e                	mv	a0,a5
    1e52:	c0dff0ef          	jal	1a5e <sbi_hartmask_clear_hartindex>
    1e56:	fe042623          	sw	zero,-20(s0)
    1e5a:	fe043783          	ld	a5,-32(s0)
    1e5e:	00178713          	addi	a4,a5,1
    1e62:	fb840793          	addi	a5,s0,-72
    1e66:	863a                	mv	a2,a4
    1e68:	08000593          	li	a1,128
    1e6c:	853e                	mv	a0,a5
    1e6e:	6830f0ef          	jal	11cf0 <find_next_bit>
    1e72:	fea43023          	sd	a0,-32(s0)
    1e76:	fe043703          	ld	a4,-32(s0)
    1e7a:	07f00793          	li	a5,127
    1e7e:	f8e7f3e3          	bgeu	a5,a4,1e04 <sbi_ipi_send_many+0x14c>
    1e82:	fe842783          	lw	a5,-24(s0)
    1e86:	2781                	sext.w	a5,a5
    1e88:	f3b5                	bnez	a5,1dec <sbi_ipi_send_many+0x134>
    1e8a:	a011                	j	1e8e <sbi_ipi_send_many+0x1d6>
    1e8c:	0001                	nop
    1e8e:	f9c42783          	lw	a5,-100(s0)
    1e92:	85be                	mv	a1,a5
    1e94:	fd043503          	ld	a0,-48(s0)
    1e98:	db1ff0ef          	jal	1c48 <sbi_ipi_sync>
    1e9c:	fec42783          	lw	a5,-20(s0)
    1ea0:	853e                	mv	a0,a5
    1ea2:	70a6                	ld	ra,104(sp)
    1ea4:	7406                	ld	s0,96(sp)
    1ea6:	6165                	addi	sp,sp,112
    1ea8:	8082                	ret

0000000000001eaa <sbi_ipi_event_create>:
    1eaa:	7179                	addi	sp,sp,-48
    1eac:	f422                	sd	s0,40(sp)
    1eae:	1800                	addi	s0,sp,48
    1eb0:	fca43c23          	sd	a0,-40(s0)
    1eb4:	c1300793          	li	a5,-1005
    1eb8:	fef42423          	sw	a5,-24(s0)
    1ebc:	fd843783          	ld	a5,-40(s0)
    1ec0:	c789                	beqz	a5,1eca <sbi_ipi_event_create+0x20>
    1ec2:	fd843783          	ld	a5,-40(s0)
    1ec6:	7b9c                	ld	a5,48(a5)
    1ec8:	e399                	bnez	a5,1ece <sbi_ipi_event_create+0x24>
    1eca:	57f5                	li	a5,-3
    1ecc:	a8a9                	j	1f26 <sbi_ipi_event_create+0x7c>
    1ece:	fe042623          	sw	zero,-20(s0)
    1ed2:	a081                	j	1f12 <sbi_ipi_event_create+0x68>
    1ed4:	00081717          	auipc	a4,0x81
    1ed8:	15c70713          	addi	a4,a4,348 # 83030 <ipi_ops_array>
    1edc:	fec42783          	lw	a5,-20(s0)
    1ee0:	078e                	slli	a5,a5,0x3
    1ee2:	97ba                	add	a5,a5,a4
    1ee4:	639c                	ld	a5,0(a5)
    1ee6:	e38d                	bnez	a5,1f08 <sbi_ipi_event_create+0x5e>
    1ee8:	fec42783          	lw	a5,-20(s0)
    1eec:	fef42423          	sw	a5,-24(s0)
    1ef0:	00081717          	auipc	a4,0x81
    1ef4:	14070713          	addi	a4,a4,320 # 83030 <ipi_ops_array>
    1ef8:	fec42783          	lw	a5,-20(s0)
    1efc:	078e                	slli	a5,a5,0x3
    1efe:	97ba                	add	a5,a5,a4
    1f00:	fd843703          	ld	a4,-40(s0)
    1f04:	e398                	sd	a4,0(a5)
    1f06:	a831                	j	1f22 <sbi_ipi_event_create+0x78>
    1f08:	fec42783          	lw	a5,-20(s0)
    1f0c:	2785                	addiw	a5,a5,1
    1f0e:	fef42623          	sw	a5,-20(s0)
    1f12:	fec42783          	lw	a5,-20(s0)
    1f16:	0007871b          	sext.w	a4,a5
    1f1a:	03f00793          	li	a5,63
    1f1e:	fae7dbe3          	bge	a5,a4,1ed4 <sbi_ipi_event_create+0x2a>
    1f22:	fe842783          	lw	a5,-24(s0)
    1f26:	853e                	mv	a0,a5
    1f28:	7422                	ld	s0,40(sp)
    1f2a:	6145                	addi	sp,sp,48
    1f2c:	8082                	ret

0000000000001f2e <sbi_ipi_event_destroy>:
    1f2e:	1101                	addi	sp,sp,-32
    1f30:	ec22                	sd	s0,24(sp)
    1f32:	1000                	addi	s0,sp,32
    1f34:	87aa                	mv	a5,a0
    1f36:	fef42623          	sw	a5,-20(s0)
    1f3a:	fec42783          	lw	a5,-20(s0)
    1f3e:	0007871b          	sext.w	a4,a5
    1f42:	03f00793          	li	a5,63
    1f46:	00e7ed63          	bltu	a5,a4,1f60 <sbi_ipi_event_destroy+0x32>
    1f4a:	00081717          	auipc	a4,0x81
    1f4e:	0e670713          	addi	a4,a4,230 # 83030 <ipi_ops_array>
    1f52:	fec46783          	lwu	a5,-20(s0)
    1f56:	078e                	slli	a5,a5,0x3
    1f58:	97ba                	add	a5,a5,a4
    1f5a:	0007b023          	sd	zero,0(a5)
    1f5e:	a011                	j	1f62 <sbi_ipi_event_destroy+0x34>
    1f60:	0001                	nop
    1f62:	6462                	ld	s0,24(sp)
    1f64:	6105                	addi	sp,sp,32
    1f66:	8082                	ret

0000000000001f68 <sbi_ipi_process_smode>:
    1f68:	7179                	addi	sp,sp,-48
    1f6a:	f422                	sd	s0,40(sp)
    1f6c:	1800                	addi	s0,sp,48
    1f6e:	fca43c23          	sd	a0,-40(s0)
    1f72:	4789                	li	a5,2
    1f74:	fef43423          	sd	a5,-24(s0)
    1f78:	fe843783          	ld	a5,-24(s0)
    1f7c:	3447a073          	csrs	mip,a5
    1f80:	0001                	nop
    1f82:	7422                	ld	s0,40(sp)
    1f84:	6145                	addi	sp,sp,48
    1f86:	8082                	ret

0000000000001f88 <sbi_ipi_send_smode>:
    1f88:	1101                	addi	sp,sp,-32
    1f8a:	ec06                	sd	ra,24(sp)
    1f8c:	e822                	sd	s0,16(sp)
    1f8e:	1000                	addi	s0,sp,32
    1f90:	fea43423          	sd	a0,-24(s0)
    1f94:	feb43023          	sd	a1,-32(s0)
    1f98:	0007e797          	auipc	a5,0x7e
    1f9c:	09878793          	addi	a5,a5,152 # 80030 <ipi_smode_event>
    1fa0:	439c                	lw	a5,0(a5)
    1fa2:	4681                	li	a3,0
    1fa4:	863e                	mv	a2,a5
    1fa6:	fe043583          	ld	a1,-32(s0)
    1faa:	fe843503          	ld	a0,-24(s0)
    1fae:	d0bff0ef          	jal	1cb8 <sbi_ipi_send_many>
    1fb2:	87aa                	mv	a5,a0
    1fb4:	853e                	mv	a0,a5
    1fb6:	60e2                	ld	ra,24(sp)
    1fb8:	6442                	ld	s0,16(sp)
    1fba:	6105                	addi	sp,sp,32
    1fbc:	8082                	ret

0000000000001fbe <sbi_ipi_clear_smode>:
    1fbe:	1101                	addi	sp,sp,-32
    1fc0:	ec22                	sd	s0,24(sp)
    1fc2:	1000                	addi	s0,sp,32
    1fc4:	4789                	li	a5,2
    1fc6:	fef43423          	sd	a5,-24(s0)
    1fca:	fe843783          	ld	a5,-24(s0)
    1fce:	3447b073          	csrc	mip,a5
    1fd2:	0001                	nop
    1fd4:	6462                	ld	s0,24(sp)
    1fd6:	6105                	addi	sp,sp,32
    1fd8:	8082                	ret

0000000000001fda <sbi_ipi_process_halt>:
    1fda:	1101                	addi	sp,sp,-32
    1fdc:	ec06                	sd	ra,24(sp)
    1fde:	e822                	sd	s0,16(sp)
    1fe0:	1000                	addi	s0,sp,32
    1fe2:	fea43423          	sd	a0,-24(s0)
    1fe6:	4585                	li	a1,1
    1fe8:	fe843503          	ld	a0,-24(s0)
    1fec:	5641a0ef          	jal	1c550 <sbi_hsm_hart_stop>
    1ff0:	0001                	nop
    1ff2:	60e2                	ld	ra,24(sp)
    1ff4:	6442                	ld	s0,16(sp)
    1ff6:	6105                	addi	sp,sp,32
    1ff8:	8082                	ret

0000000000001ffa <sbi_ipi_send_halt>:
    1ffa:	1101                	addi	sp,sp,-32
    1ffc:	ec06                	sd	ra,24(sp)
    1ffe:	e822                	sd	s0,16(sp)
    2000:	1000                	addi	s0,sp,32
    2002:	fea43423          	sd	a0,-24(s0)
    2006:	feb43023          	sd	a1,-32(s0)
    200a:	0007e797          	auipc	a5,0x7e
    200e:	02a78793          	addi	a5,a5,42 # 80034 <ipi_halt_event>
    2012:	439c                	lw	a5,0(a5)
    2014:	4681                	li	a3,0
    2016:	863e                	mv	a2,a5
    2018:	fe043583          	ld	a1,-32(s0)
    201c:	fe843503          	ld	a0,-24(s0)
    2020:	c99ff0ef          	jal	1cb8 <sbi_ipi_send_many>
    2024:	87aa                	mv	a5,a0
    2026:	853e                	mv	a0,a5
    2028:	60e2                	ld	ra,24(sp)
    202a:	6442                	ld	s0,16(sp)
    202c:	6105                	addi	sp,sp,32
    202e:	8082                	ret

0000000000002030 <sbi_ipi_process>:
    2030:	7139                	addi	sp,sp,-64
    2032:	fc06                	sd	ra,56(sp)
    2034:	f822                	sd	s0,48(sp)
    2036:	0080                	addi	s0,sp,64
    2038:	340027f3          	csrr	a5,mscratch
    203c:	80be                	mv	ra,a5
    203e:	8786                	mv	a5,ra
    2040:	fcf43c23          	sd	a5,-40(s0)
    2044:	00081797          	auipc	a5,0x81
    2048:	fdc78793          	addi	a5,a5,-36 # 83020 <ipi_data_off>
    204c:	639c                	ld	a5,0(a5)
    204e:	fd843703          	ld	a4,-40(s0)
    2052:	97ba                	add	a5,a5,a4
    2054:	fcf43823          	sd	a5,-48(s0)
    2058:	f14027f3          	csrr	a5,mhartid
    205c:	80be                	mv	ra,a5
    205e:	8786                	mv	a5,ra
    2060:	2781                	sext.w	a5,a5
    2062:	853e                	mv	a0,a5
    2064:	024040ef          	jal	6088 <sbi_hartid_to_hartindex>
    2068:	87aa                	mv	a5,a0
    206a:	fcf42623          	sw	a5,-52(s0)
    206e:	451d                	li	a0,7
    2070:	2e0020ef          	jal	4350 <sbi_pmu_ctr_incr_fw>
    2074:	fcc42783          	lw	a5,-52(s0)
    2078:	853e                	mv	a0,a5
    207a:	0c0000ef          	jal	213a <sbi_ipi_raw_clear>
    207e:	fd043783          	ld	a5,-48(s0)
    2082:	4581                	li	a1,0
    2084:	853e                	mv	a0,a5
    2086:	3ae0d0ef          	jal	f434 <atomic_raw_xchg_ulong>
    208a:	fea43423          	sd	a0,-24(s0)
    208e:	fe042223          	sw	zero,-28(s0)
    2092:	a099                	j	20d8 <sbi_ipi_process+0xa8>
    2094:	fe843783          	ld	a5,-24(s0)
    2098:	8b85                	andi	a5,a5,1
    209a:	c78d                	beqz	a5,20c4 <sbi_ipi_process+0x94>
    209c:	00081717          	auipc	a4,0x81
    20a0:	f9470713          	addi	a4,a4,-108 # 83030 <ipi_ops_array>
    20a4:	fe446783          	lwu	a5,-28(s0)
    20a8:	078e                	slli	a5,a5,0x3
    20aa:	97ba                	add	a5,a5,a4
    20ac:	639c                	ld	a5,0(a5)
    20ae:	fcf43023          	sd	a5,-64(s0)
    20b2:	fc043783          	ld	a5,-64(s0)
    20b6:	c799                	beqz	a5,20c4 <sbi_ipi_process+0x94>
    20b8:	fc043783          	ld	a5,-64(s0)
    20bc:	7b9c                	ld	a5,48(a5)
    20be:	fd843503          	ld	a0,-40(s0)
    20c2:	9782                	jalr	a5
    20c4:	fe843783          	ld	a5,-24(s0)
    20c8:	8385                	srli	a5,a5,0x1
    20ca:	fef43423          	sd	a5,-24(s0)
    20ce:	fe442783          	lw	a5,-28(s0)
    20d2:	2785                	addiw	a5,a5,1
    20d4:	fef42223          	sw	a5,-28(s0)
    20d8:	fe843783          	ld	a5,-24(s0)
    20dc:	ffc5                	bnez	a5,2094 <sbi_ipi_process+0x64>
    20de:	0001                	nop
    20e0:	0001                	nop
    20e2:	70e2                	ld	ra,56(sp)
    20e4:	7442                	ld	s0,48(sp)
    20e6:	6121                	addi	sp,sp,64
    20e8:	8082                	ret

00000000000020ea <sbi_ipi_raw_send>:
    20ea:	1101                	addi	sp,sp,-32
    20ec:	ec06                	sd	ra,24(sp)
    20ee:	e822                	sd	s0,16(sp)
    20f0:	1000                	addi	s0,sp,32
    20f2:	87aa                	mv	a5,a0
    20f4:	fef42623          	sw	a5,-20(s0)
    20f8:	00081797          	auipc	a5,0x81
    20fc:	f3078793          	addi	a5,a5,-208 # 83028 <ipi_dev>
    2100:	639c                	ld	a5,0(a5)
    2102:	cb81                	beqz	a5,2112 <sbi_ipi_raw_send+0x28>
    2104:	00081797          	auipc	a5,0x81
    2108:	f2478793          	addi	a5,a5,-220 # 83028 <ipi_dev>
    210c:	639c                	ld	a5,0(a5)
    210e:	739c                	ld	a5,32(a5)
    2110:	e399                	bnez	a5,2116 <sbi_ipi_raw_send+0x2c>
    2112:	57f5                	li	a5,-3
    2114:	a831                	j	2130 <sbi_ipi_raw_send+0x46>
    2116:	0550000f          	fence	ow,ow
    211a:	00081797          	auipc	a5,0x81
    211e:	f0e78793          	addi	a5,a5,-242 # 83028 <ipi_dev>
    2122:	639c                	ld	a5,0(a5)
    2124:	739c                	ld	a5,32(a5)
    2126:	fec42703          	lw	a4,-20(s0)
    212a:	853a                	mv	a0,a4
    212c:	9782                	jalr	a5
    212e:	4781                	li	a5,0
    2130:	853e                	mv	a0,a5
    2132:	60e2                	ld	ra,24(sp)
    2134:	6442                	ld	s0,16(sp)
    2136:	6105                	addi	sp,sp,32
    2138:	8082                	ret

000000000000213a <sbi_ipi_raw_clear>:
    213a:	1101                	addi	sp,sp,-32
    213c:	ec06                	sd	ra,24(sp)
    213e:	e822                	sd	s0,16(sp)
    2140:	1000                	addi	s0,sp,32
    2142:	87aa                	mv	a5,a0
    2144:	fef42623          	sw	a5,-20(s0)
    2148:	00081797          	auipc	a5,0x81
    214c:	ee078793          	addi	a5,a5,-288 # 83028 <ipi_dev>
    2150:	639c                	ld	a5,0(a5)
    2152:	c395                	beqz	a5,2176 <sbi_ipi_raw_clear+0x3c>
    2154:	00081797          	auipc	a5,0x81
    2158:	ed478793          	addi	a5,a5,-300 # 83028 <ipi_dev>
    215c:	639c                	ld	a5,0(a5)
    215e:	779c                	ld	a5,40(a5)
    2160:	cb99                	beqz	a5,2176 <sbi_ipi_raw_clear+0x3c>
    2162:	00081797          	auipc	a5,0x81
    2166:	ec678793          	addi	a5,a5,-314 # 83028 <ipi_dev>
    216a:	639c                	ld	a5,0(a5)
    216c:	779c                	ld	a5,40(a5)
    216e:	fec42703          	lw	a4,-20(s0)
    2172:	853a                	mv	a0,a4
    2174:	9782                	jalr	a5
    2176:	0550000f          	fence	ow,ow
    217a:	0001                	nop
    217c:	60e2                	ld	ra,24(sp)
    217e:	6442                	ld	s0,16(sp)
    2180:	6105                	addi	sp,sp,32
    2182:	8082                	ret

0000000000002184 <sbi_ipi_get_device>:
    2184:	1141                	addi	sp,sp,-16
    2186:	e422                	sd	s0,8(sp)
    2188:	0800                	addi	s0,sp,16
    218a:	00081797          	auipc	a5,0x81
    218e:	e9e78793          	addi	a5,a5,-354 # 83028 <ipi_dev>
    2192:	639c                	ld	a5,0(a5)
    2194:	853e                	mv	a0,a5
    2196:	6422                	ld	s0,8(sp)
    2198:	0141                	addi	sp,sp,16
    219a:	8082                	ret

000000000000219c <sbi_ipi_set_device>:
    219c:	1101                	addi	sp,sp,-32
    219e:	ec22                	sd	s0,24(sp)
    21a0:	1000                	addi	s0,sp,32
    21a2:	fea43423          	sd	a0,-24(s0)
    21a6:	fe843783          	ld	a5,-24(s0)
    21aa:	cf99                	beqz	a5,21c8 <sbi_ipi_set_device+0x2c>
    21ac:	00081797          	auipc	a5,0x81
    21b0:	e7c78793          	addi	a5,a5,-388 # 83028 <ipi_dev>
    21b4:	639c                	ld	a5,0(a5)
    21b6:	eb89                	bnez	a5,21c8 <sbi_ipi_set_device+0x2c>
    21b8:	00081797          	auipc	a5,0x81
    21bc:	e7078793          	addi	a5,a5,-400 # 83028 <ipi_dev>
    21c0:	fe843703          	ld	a4,-24(s0)
    21c4:	e398                	sd	a4,0(a5)
    21c6:	a011                	j	21ca <sbi_ipi_set_device+0x2e>
    21c8:	0001                	nop
    21ca:	6462                	ld	s0,24(sp)
    21cc:	6105                	addi	sp,sp,32
    21ce:	8082                	ret

00000000000021d0 <sbi_ipi_init>:
    21d0:	7139                	addi	sp,sp,-64
    21d2:	fc06                	sd	ra,56(sp)
    21d4:	f822                	sd	s0,48(sp)
    21d6:	0080                	addi	s0,sp,64
    21d8:	fca43423          	sd	a0,-56(s0)
    21dc:	87ae                	mv	a5,a1
    21de:	fcf42223          	sw	a5,-60(s0)
    21e2:	fc442783          	lw	a5,-60(s0)
    21e6:	2781                	sext.w	a5,a5
    21e8:	c7c1                	beqz	a5,2270 <sbi_ipi_init+0xa0>
    21ea:	4521                	li	a0,8
    21ec:	7b3030ef          	jal	619e <sbi_scratch_alloc_offset>
    21f0:	872a                	mv	a4,a0
    21f2:	00081797          	auipc	a5,0x81
    21f6:	e2e78793          	addi	a5,a5,-466 # 83020 <ipi_data_off>
    21fa:	e398                	sd	a4,0(a5)
    21fc:	00081797          	auipc	a5,0x81
    2200:	e2478793          	addi	a5,a5,-476 # 83020 <ipi_data_off>
    2204:	639c                	ld	a5,0(a5)
    2206:	e781                	bnez	a5,220e <sbi_ipi_init+0x3e>
    2208:	c1200793          	li	a5,-1006
    220c:	a8e5                	j	2304 <sbi_ipi_init+0x134>
    220e:	0007e517          	auipc	a0,0x7e
    2212:	59a50513          	addi	a0,a0,1434 # 807a8 <ipi_smode_ops>
    2216:	c95ff0ef          	jal	1eaa <sbi_ipi_event_create>
    221a:	87aa                	mv	a5,a0
    221c:	fef42623          	sw	a5,-20(s0)
    2220:	fec42783          	lw	a5,-20(s0)
    2224:	2781                	sext.w	a5,a5
    2226:	0007d563          	bgez	a5,2230 <sbi_ipi_init+0x60>
    222a:	fec42783          	lw	a5,-20(s0)
    222e:	a8d9                	j	2304 <sbi_ipi_init+0x134>
    2230:	fec42703          	lw	a4,-20(s0)
    2234:	0007e797          	auipc	a5,0x7e
    2238:	dfc78793          	addi	a5,a5,-516 # 80030 <ipi_smode_event>
    223c:	c398                	sw	a4,0(a5)
    223e:	0007e517          	auipc	a0,0x7e
    2242:	5a250513          	addi	a0,a0,1442 # 807e0 <ipi_halt_ops>
    2246:	c65ff0ef          	jal	1eaa <sbi_ipi_event_create>
    224a:	87aa                	mv	a5,a0
    224c:	fef42623          	sw	a5,-20(s0)
    2250:	fec42783          	lw	a5,-20(s0)
    2254:	2781                	sext.w	a5,a5
    2256:	0007d563          	bgez	a5,2260 <sbi_ipi_init+0x90>
    225a:	fec42783          	lw	a5,-20(s0)
    225e:	a05d                	j	2304 <sbi_ipi_init+0x134>
    2260:	fec42703          	lw	a4,-20(s0)
    2264:	0007e797          	auipc	a5,0x7e
    2268:	dd078793          	addi	a5,a5,-560 # 80034 <ipi_halt_event>
    226c:	c398                	sw	a4,0(a5)
    226e:	a089                	j	22b0 <sbi_ipi_init+0xe0>
    2270:	00081797          	auipc	a5,0x81
    2274:	db078793          	addi	a5,a5,-592 # 83020 <ipi_data_off>
    2278:	639c                	ld	a5,0(a5)
    227a:	e781                	bnez	a5,2282 <sbi_ipi_init+0xb2>
    227c:	c1200793          	li	a5,-1006
    2280:	a051                	j	2304 <sbi_ipi_init+0x134>
    2282:	0007e797          	auipc	a5,0x7e
    2286:	dae78793          	addi	a5,a5,-594 # 80030 <ipi_smode_event>
    228a:	439c                	lw	a5,0(a5)
    228c:	873e                	mv	a4,a5
    228e:	03f00793          	li	a5,63
    2292:	00e7ec63          	bltu	a5,a4,22aa <sbi_ipi_init+0xda>
    2296:	0007e797          	auipc	a5,0x7e
    229a:	d9e78793          	addi	a5,a5,-610 # 80034 <ipi_halt_event>
    229e:	439c                	lw	a5,0(a5)
    22a0:	873e                	mv	a4,a5
    22a2:	03f00793          	li	a5,63
    22a6:	00e7f563          	bgeu	a5,a4,22b0 <sbi_ipi_init+0xe0>
    22aa:	c1300793          	li	a5,-1005
    22ae:	a899                	j	2304 <sbi_ipi_init+0x134>
    22b0:	00081797          	auipc	a5,0x81
    22b4:	d7078793          	addi	a5,a5,-656 # 83020 <ipi_data_off>
    22b8:	639c                	ld	a5,0(a5)
    22ba:	fc843703          	ld	a4,-56(s0)
    22be:	97ba                	add	a5,a5,a4
    22c0:	fef43023          	sd	a5,-32(s0)
    22c4:	fe043783          	ld	a5,-32(s0)
    22c8:	0007b023          	sd	zero,0(a5)
    22cc:	fc843783          	ld	a5,-56(s0)
    22d0:	67bc                	ld	a5,72(a5)
    22d2:	873e                	mv	a4,a5
    22d4:	fc442783          	lw	a5,-60(s0)
    22d8:	85be                	mv	a1,a5
    22da:	853a                	mv	a0,a4
    22dc:	fbeff0ef          	jal	1a9a <sbi_platform_ipi_init>
    22e0:	87aa                	mv	a5,a0
    22e2:	fef42623          	sw	a5,-20(s0)
    22e6:	fec42783          	lw	a5,-20(s0)
    22ea:	2781                	sext.w	a5,a5
    22ec:	c781                	beqz	a5,22f4 <sbi_ipi_init+0x124>
    22ee:	fec42783          	lw	a5,-20(s0)
    22f2:	a809                	j	2304 <sbi_ipi_init+0x134>
    22f4:	47a1                	li	a5,8
    22f6:	fcf43c23          	sd	a5,-40(s0)
    22fa:	fd843783          	ld	a5,-40(s0)
    22fe:	3047a073          	csrs	mie,a5
    2302:	4781                	li	a5,0
    2304:	853e                	mv	a0,a5
    2306:	70e2                	ld	ra,56(sp)
    2308:	7442                	ld	s0,48(sp)
    230a:	6121                	addi	sp,sp,64
    230c:	8082                	ret

000000000000230e <sbi_ipi_exit>:
    230e:	7179                	addi	sp,sp,-48
    2310:	f406                	sd	ra,40(sp)
    2312:	f022                	sd	s0,32(sp)
    2314:	1800                	addi	s0,sp,48
    2316:	fca43c23          	sd	a0,-40(s0)
    231a:	47a1                	li	a5,8
    231c:	fef43423          	sd	a5,-24(s0)
    2320:	fe843783          	ld	a5,-24(s0)
    2324:	3047b073          	csrc	mie,a5
    2328:	d09ff0ef          	jal	2030 <sbi_ipi_process>
    232c:	fd843783          	ld	a5,-40(s0)
    2330:	67bc                	ld	a5,72(a5)
    2332:	853e                	mv	a0,a5
    2334:	fa8ff0ef          	jal	1adc <sbi_platform_ipi_exit>
    2338:	0001                	nop
    233a:	70a2                	ld	ra,40(sp)
    233c:	7402                	ld	s0,32(sp)
    233e:	6145                	addi	sp,sp,48
    2340:	8082                	ret

0000000000002342 <sbi_platform_irqchip_init>:
    2342:	1101                	addi	sp,sp,-32
    2344:	ec06                	sd	ra,24(sp)
    2346:	e822                	sd	s0,16(sp)
    2348:	1000                	addi	s0,sp,32
    234a:	fea43423          	sd	a0,-24(s0)
    234e:	87ae                	mv	a5,a1
    2350:	fef42223          	sw	a5,-28(s0)
    2354:	fe843783          	ld	a5,-24(s0)
    2358:	c385                	beqz	a5,2378 <sbi_platform_irqchip_init+0x36>
    235a:	fe843783          	ld	a5,-24(s0)
    235e:	73bc                	ld	a5,96(a5)
    2360:	73bc                	ld	a5,96(a5)
    2362:	cb99                	beqz	a5,2378 <sbi_platform_irqchip_init+0x36>
    2364:	fe843783          	ld	a5,-24(s0)
    2368:	73bc                	ld	a5,96(a5)
    236a:	73bc                	ld	a5,96(a5)
    236c:	fe442703          	lw	a4,-28(s0)
    2370:	853a                	mv	a0,a4
    2372:	9782                	jalr	a5
    2374:	87aa                	mv	a5,a0
    2376:	a011                	j	237a <sbi_platform_irqchip_init+0x38>
    2378:	4781                	li	a5,0
    237a:	853e                	mv	a0,a5
    237c:	60e2                	ld	ra,24(sp)
    237e:	6442                	ld	s0,16(sp)
    2380:	6105                	addi	sp,sp,32
    2382:	8082                	ret

0000000000002384 <sbi_platform_irqchip_exit>:
    2384:	1101                	addi	sp,sp,-32
    2386:	ec06                	sd	ra,24(sp)
    2388:	e822                	sd	s0,16(sp)
    238a:	1000                	addi	s0,sp,32
    238c:	fea43423          	sd	a0,-24(s0)
    2390:	fe843783          	ld	a5,-24(s0)
    2394:	cb99                	beqz	a5,23aa <sbi_platform_irqchip_exit+0x26>
    2396:	fe843783          	ld	a5,-24(s0)
    239a:	73bc                	ld	a5,96(a5)
    239c:	77bc                	ld	a5,104(a5)
    239e:	c791                	beqz	a5,23aa <sbi_platform_irqchip_exit+0x26>
    23a0:	fe843783          	ld	a5,-24(s0)
    23a4:	73bc                	ld	a5,96(a5)
    23a6:	77bc                	ld	a5,104(a5)
    23a8:	9782                	jalr	a5
    23aa:	0001                	nop
    23ac:	60e2                	ld	ra,24(sp)
    23ae:	6442                	ld	s0,16(sp)
    23b0:	6105                	addi	sp,sp,32
    23b2:	8082                	ret

00000000000023b4 <default_irqfn>:
    23b4:	1141                	addi	sp,sp,-16
    23b6:	e422                	sd	s0,8(sp)
    23b8:	0800                	addi	s0,sp,16
    23ba:	c1800793          	li	a5,-1000
    23be:	853e                	mv	a0,a5
    23c0:	6422                	ld	s0,8(sp)
    23c2:	0141                	addi	sp,sp,16
    23c4:	8082                	ret

00000000000023c6 <sbi_irqchip_set_irqfn>:
    23c6:	1101                	addi	sp,sp,-32
    23c8:	ec22                	sd	s0,24(sp)
    23ca:	1000                	addi	s0,sp,32
    23cc:	fea43423          	sd	a0,-24(s0)
    23d0:	fe843783          	ld	a5,-24(s0)
    23d4:	cb81                	beqz	a5,23e4 <sbi_irqchip_set_irqfn+0x1e>
    23d6:	0007e797          	auipc	a5,0x7e
    23da:	44278793          	addi	a5,a5,1090 # 80818 <ext_irqfn>
    23de:	fe843703          	ld	a4,-24(s0)
    23e2:	e398                	sd	a4,0(a5)
    23e4:	0001                	nop
    23e6:	6462                	ld	s0,24(sp)
    23e8:	6105                	addi	sp,sp,32
    23ea:	8082                	ret

00000000000023ec <sbi_irqchip_process>:
    23ec:	1141                	addi	sp,sp,-16
    23ee:	e406                	sd	ra,8(sp)
    23f0:	e022                	sd	s0,0(sp)
    23f2:	0800                	addi	s0,sp,16
    23f4:	0007e797          	auipc	a5,0x7e
    23f8:	42478793          	addi	a5,a5,1060 # 80818 <ext_irqfn>
    23fc:	639c                	ld	a5,0(a5)
    23fe:	9782                	jalr	a5
    2400:	87aa                	mv	a5,a0
    2402:	853e                	mv	a0,a5
    2404:	60a2                	ld	ra,8(sp)
    2406:	6402                	ld	s0,0(sp)
    2408:	0141                	addi	sp,sp,16
    240a:	8082                	ret

000000000000240c <sbi_irqchip_init>:
    240c:	7139                	addi	sp,sp,-64
    240e:	fc06                	sd	ra,56(sp)
    2410:	f822                	sd	s0,48(sp)
    2412:	0080                	addi	s0,sp,64
    2414:	fca43423          	sd	a0,-56(s0)
    2418:	87ae                	mv	a5,a1
    241a:	fcf42223          	sw	a5,-60(s0)
    241e:	fc843783          	ld	a5,-56(s0)
    2422:	67bc                	ld	a5,72(a5)
    2424:	fef43423          	sd	a5,-24(s0)
    2428:	fc442783          	lw	a5,-60(s0)
    242c:	85be                	mv	a1,a5
    242e:	fe843503          	ld	a0,-24(s0)
    2432:	f11ff0ef          	jal	2342 <sbi_platform_irqchip_init>
    2436:	87aa                	mv	a5,a0
    2438:	fef42223          	sw	a5,-28(s0)
    243c:	fe442783          	lw	a5,-28(s0)
    2440:	2781                	sext.w	a5,a5
    2442:	c781                	beqz	a5,244a <sbi_irqchip_init+0x3e>
    2444:	fe442783          	lw	a5,-28(s0)
    2448:	a035                	j	2474 <sbi_irqchip_init+0x68>
    244a:	0007e797          	auipc	a5,0x7e
    244e:	3ce78793          	addi	a5,a5,974 # 80818 <ext_irqfn>
    2452:	6398                	ld	a4,0(a5)
    2454:	00000797          	auipc	a5,0x0
    2458:	f6078793          	addi	a5,a5,-160 # 23b4 <default_irqfn>
    245c:	00f70b63          	beq	a4,a5,2472 <sbi_irqchip_init+0x66>
    2460:	6785                	lui	a5,0x1
    2462:	80078793          	addi	a5,a5,-2048 # 800 <sbi_platform_hart_count>
    2466:	fcf43c23          	sd	a5,-40(s0)
    246a:	fd843783          	ld	a5,-40(s0)
    246e:	3047a073          	csrs	mie,a5
    2472:	4781                	li	a5,0
    2474:	853e                	mv	a0,a5
    2476:	70e2                	ld	ra,56(sp)
    2478:	7442                	ld	s0,48(sp)
    247a:	6121                	addi	sp,sp,64
    247c:	8082                	ret

000000000000247e <sbi_irqchip_exit>:
    247e:	7179                	addi	sp,sp,-48
    2480:	f406                	sd	ra,40(sp)
    2482:	f022                	sd	s0,32(sp)
    2484:	1800                	addi	s0,sp,48
    2486:	fca43c23          	sd	a0,-40(s0)
    248a:	fd843783          	ld	a5,-40(s0)
    248e:	67bc                	ld	a5,72(a5)
    2490:	fef43423          	sd	a5,-24(s0)
    2494:	0007e797          	auipc	a5,0x7e
    2498:	38478793          	addi	a5,a5,900 # 80818 <ext_irqfn>
    249c:	6398                	ld	a4,0(a5)
    249e:	00000797          	auipc	a5,0x0
    24a2:	f1678793          	addi	a5,a5,-234 # 23b4 <default_irqfn>
    24a6:	00f70b63          	beq	a4,a5,24bc <sbi_irqchip_exit+0x3e>
    24aa:	6785                	lui	a5,0x1
    24ac:	80078793          	addi	a5,a5,-2048 # 800 <sbi_platform_hart_count>
    24b0:	fef43023          	sd	a5,-32(s0)
    24b4:	fe043783          	ld	a5,-32(s0)
    24b8:	3047b073          	csrc	mie,a5
    24bc:	fe843503          	ld	a0,-24(s0)
    24c0:	ec5ff0ef          	jal	2384 <sbi_platform_irqchip_exit>
    24c4:	0001                	nop
    24c6:	70a2                	ld	ra,40(sp)
    24c8:	7402                	ld	s0,32(sp)
    24ca:	6145                	addi	sp,sp,48
    24cc:	8082                	ret

00000000000024ce <sbi_platform_get_features>:
    24ce:	1101                	addi	sp,sp,-32
    24d0:	ec22                	sd	s0,24(sp)
    24d2:	1000                	addi	s0,sp,32
    24d4:	fea43423          	sd	a0,-24(s0)
    24d8:	fe843783          	ld	a5,-24(s0)
    24dc:	c789                	beqz	a5,24e6 <sbi_platform_get_features+0x18>
    24de:	fe843783          	ld	a5,-24(s0)
    24e2:	67bc                	ld	a5,72(a5)
    24e4:	a011                	j	24e8 <sbi_platform_get_features+0x1a>
    24e6:	4781                	li	a5,0
    24e8:	853e                	mv	a0,a5
    24ea:	6462                	ld	s0,24(sp)
    24ec:	6105                	addi	sp,sp,32
    24ee:	8082                	ret

00000000000024f0 <sbi_platform_feature_id2string>:
    24f0:	7179                	addi	sp,sp,-48
    24f2:	f422                	sd	s0,40(sp)
    24f4:	1800                	addi	s0,sp,48
    24f6:	fca43c23          	sd	a0,-40(s0)
    24fa:	fe043423          	sd	zero,-24(s0)
    24fe:	fd843783          	ld	a5,-40(s0)
    2502:	e399                	bnez	a5,2508 <sbi_platform_feature_id2string+0x18>
    2504:	4781                	li	a5,0
    2506:	a005                	j	2526 <sbi_platform_feature_id2string+0x36>
    2508:	fd843703          	ld	a4,-40(s0)
    250c:	4789                	li	a5,2
    250e:	00f71963          	bne	a4,a5,2520 <sbi_platform_feature_id2string+0x30>
    2512:	00032797          	auipc	a5,0x32
    2516:	2c678793          	addi	a5,a5,710 # 347d8 <__func__.0+0x10>
    251a:	fef43423          	sd	a5,-24(s0)
    251e:	a011                	j	2522 <sbi_platform_feature_id2string+0x32>
    2520:	0001                	nop
    2522:	fe843783          	ld	a5,-24(s0)
    2526:	853e                	mv	a0,a5
    2528:	7422                	ld	s0,40(sp)
    252a:	6145                	addi	sp,sp,48
    252c:	8082                	ret

000000000000252e <sbi_platform_get_features_str>:
    252e:	711d                	addi	sp,sp,-96
    2530:	ec86                	sd	ra,88(sp)
    2532:	e8a2                	sd	s0,80(sp)
    2534:	1080                	addi	s0,sp,96
    2536:	faa43c23          	sd	a0,-72(s0)
    253a:	fab43823          	sd	a1,-80(s0)
    253e:	87b2                	mv	a5,a2
    2540:	faf42623          	sw	a5,-84(s0)
    2544:	4785                	li	a5,1
    2546:	fef43423          	sd	a5,-24(s0)
    254a:	fe042223          	sw	zero,-28(s0)
    254e:	fb843783          	ld	a5,-72(s0)
    2552:	10078c63          	beqz	a5,266a <sbi_platform_get_features_str+0x13c>
    2556:	fb043783          	ld	a5,-80(s0)
    255a:	10078863          	beqz	a5,266a <sbi_platform_get_features_str+0x13c>
    255e:	fac42783          	lw	a5,-84(s0)
    2562:	2781                	sext.w	a5,a5
    2564:	10078363          	beqz	a5,266a <sbi_platform_get_features_str+0x13c>
    2568:	fac42783          	lw	a5,-84(s0)
    256c:	863e                	mv	a2,a5
    256e:	4581                	li	a1,0
    2570:	fb043503          	ld	a0,-80(s0)
    2574:	5bb050ef          	jal	832e <sbi_memset>
    2578:	fb843503          	ld	a0,-72(s0)
    257c:	f53ff0ef          	jal	24ce <sbi_platform_get_features>
    2580:	fca43c23          	sd	a0,-40(s0)
    2584:	fd843783          	ld	a5,-40(s0)
    2588:	c7cd                	beqz	a5,2632 <sbi_platform_get_features_str+0x104>
    258a:	fd843703          	ld	a4,-40(s0)
    258e:	fe843783          	ld	a5,-24(s0)
    2592:	8ff9                	and	a5,a5,a4
    2594:	c7c1                	beqz	a5,261c <sbi_platform_get_features_str+0xee>
    2596:	fe843503          	ld	a0,-24(s0)
    259a:	f57ff0ef          	jal	24f0 <sbi_platform_feature_id2string>
    259e:	fca43823          	sd	a0,-48(s0)
    25a2:	fd043783          	ld	a5,-48(s0)
    25a6:	cbbd                	beqz	a5,261c <sbi_platform_get_features_str+0xee>
    25a8:	fe442783          	lw	a5,-28(s0)
    25ac:	fb043703          	ld	a4,-80(s0)
    25b0:	97ba                	add	a5,a5,a4
    25b2:	fac42703          	lw	a4,-84(s0)
    25b6:	86ba                	mv	a3,a4
    25b8:	fe442703          	lw	a4,-28(s0)
    25bc:	40e6873b          	subw	a4,a3,a4
    25c0:	2701                	sext.w	a4,a4
    25c2:	2701                	sext.w	a4,a4
    25c4:	fd043683          	ld	a3,-48(s0)
    25c8:	00032617          	auipc	a2,0x32
    25cc:	21860613          	addi	a2,a2,536 # 347e0 <__func__.0+0x18>
    25d0:	85ba                	mv	a1,a4
    25d2:	853e                	mv	a0,a5
    25d4:	209100ef          	jal	12fdc <sbi_snprintf>
    25d8:	87aa                	mv	a5,a0
    25da:	fcf42623          	sw	a5,-52(s0)
    25de:	fcc42783          	lw	a5,-52(s0)
    25e2:	2781                	sext.w	a5,a5
    25e4:	0407c963          	bltz	a5,2636 <sbi_platform_get_features_str+0x108>
    25e8:	fe442783          	lw	a5,-28(s0)
    25ec:	873e                	mv	a4,a5
    25ee:	fcc42783          	lw	a5,-52(s0)
    25f2:	9fb9                	addw	a5,a5,a4
    25f4:	0007871b          	sext.w	a4,a5
    25f8:	fac42783          	lw	a5,-84(s0)
    25fc:	2781                	sext.w	a5,a5
    25fe:	00f74763          	blt	a4,a5,260c <sbi_platform_get_features_str+0xde>
    2602:	fac42783          	lw	a5,-84(s0)
    2606:	fef42223          	sw	a5,-28(s0)
    260a:	a03d                	j	2638 <sbi_platform_get_features_str+0x10a>
    260c:	fe442783          	lw	a5,-28(s0)
    2610:	873e                	mv	a4,a5
    2612:	fcc42783          	lw	a5,-52(s0)
    2616:	9fb9                	addw	a5,a5,a4
    2618:	fef42223          	sw	a5,-28(s0)
    261c:	fe843783          	ld	a5,-24(s0)
    2620:	0786                	slli	a5,a5,0x1
    2622:	fef43423          	sd	a5,-24(s0)
    2626:	fe843703          	ld	a4,-24(s0)
    262a:	4789                	li	a5,2
    262c:	f4e7ffe3          	bgeu	a5,a4,258a <sbi_platform_get_features_str+0x5c>
    2630:	a021                	j	2638 <sbi_platform_get_features_str+0x10a>
    2632:	0001                	nop
    2634:	a011                	j	2638 <sbi_platform_get_features_str+0x10a>
    2636:	0001                	nop
    2638:	fe442783          	lw	a5,-28(s0)
    263c:	2781                	sext.w	a5,a5
    263e:	cb91                	beqz	a5,2652 <sbi_platform_get_features_str+0x124>
    2640:	fe442783          	lw	a5,-28(s0)
    2644:	17fd                	addi	a5,a5,-1
    2646:	fb043703          	ld	a4,-80(s0)
    264a:	97ba                	add	a5,a5,a4
    264c:	00078023          	sb	zero,0(a5)
    2650:	a831                	j	266c <sbi_platform_get_features_str+0x13e>
    2652:	fac42783          	lw	a5,-84(s0)
    2656:	863e                	mv	a2,a5
    2658:	00032597          	auipc	a1,0x32
    265c:	19058593          	addi	a1,a1,400 # 347e8 <__func__.0+0x20>
    2660:	fb043503          	ld	a0,-80(s0)
    2664:	39f050ef          	jal	8202 <sbi_strncpy>
    2668:	a011                	j	266c <sbi_platform_get_features_str+0x13e>
    266a:	0001                	nop
    266c:	60e6                	ld	ra,88(sp)
    266e:	6446                	ld	s0,80(sp)
    2670:	6125                	addi	sp,sp,96
    2672:	8082                	ret

0000000000002674 <sbi_ffs>:
    2674:	7179                	addi	sp,sp,-48
    2676:	f422                	sd	s0,40(sp)
    2678:	1800                	addi	s0,sp,48
    267a:	fca43c23          	sd	a0,-40(s0)
    267e:	fe042623          	sw	zero,-20(s0)
    2682:	fd843703          	ld	a4,-40(s0)
    2686:	57fd                	li	a5,-1
    2688:	9381                	srli	a5,a5,0x20
    268a:	8ff9                	and	a5,a5,a4
    268c:	ef81                	bnez	a5,26a4 <sbi_ffs+0x30>
    268e:	fec42783          	lw	a5,-20(s0)
    2692:	0207879b          	addiw	a5,a5,32
    2696:	fef42623          	sw	a5,-20(s0)
    269a:	fd843783          	ld	a5,-40(s0)
    269e:	9381                	srli	a5,a5,0x20
    26a0:	fcf43c23          	sd	a5,-40(s0)
    26a4:	fd843703          	ld	a4,-40(s0)
    26a8:	67c1                	lui	a5,0x10
    26aa:	17fd                	addi	a5,a5,-1 # ffff <sbi_ecall_time_register_extensions+0x17>
    26ac:	8ff9                	and	a5,a5,a4
    26ae:	eb99                	bnez	a5,26c4 <sbi_ffs+0x50>
    26b0:	fec42783          	lw	a5,-20(s0)
    26b4:	27c1                	addiw	a5,a5,16
    26b6:	fef42623          	sw	a5,-20(s0)
    26ba:	fd843783          	ld	a5,-40(s0)
    26be:	83c1                	srli	a5,a5,0x10
    26c0:	fcf43c23          	sd	a5,-40(s0)
    26c4:	fd843783          	ld	a5,-40(s0)
    26c8:	0ff7f793          	zext.b	a5,a5
    26cc:	eb99                	bnez	a5,26e2 <sbi_ffs+0x6e>
    26ce:	fec42783          	lw	a5,-20(s0)
    26d2:	27a1                	addiw	a5,a5,8
    26d4:	fef42623          	sw	a5,-20(s0)
    26d8:	fd843783          	ld	a5,-40(s0)
    26dc:	83a1                	srli	a5,a5,0x8
    26de:	fcf43c23          	sd	a5,-40(s0)
    26e2:	fd843783          	ld	a5,-40(s0)
    26e6:	8bbd                	andi	a5,a5,15
    26e8:	eb99                	bnez	a5,26fe <sbi_ffs+0x8a>
    26ea:	fec42783          	lw	a5,-20(s0)
    26ee:	2791                	addiw	a5,a5,4
    26f0:	fef42623          	sw	a5,-20(s0)
    26f4:	fd843783          	ld	a5,-40(s0)
    26f8:	8391                	srli	a5,a5,0x4
    26fa:	fcf43c23          	sd	a5,-40(s0)
    26fe:	fd843783          	ld	a5,-40(s0)
    2702:	8b8d                	andi	a5,a5,3
    2704:	eb99                	bnez	a5,271a <sbi_ffs+0xa6>
    2706:	fec42783          	lw	a5,-20(s0)
    270a:	2789                	addiw	a5,a5,2
    270c:	fef42623          	sw	a5,-20(s0)
    2710:	fd843783          	ld	a5,-40(s0)
    2714:	8389                	srli	a5,a5,0x2
    2716:	fcf43c23          	sd	a5,-40(s0)
    271a:	fd843783          	ld	a5,-40(s0)
    271e:	8b85                	andi	a5,a5,1
    2720:	e791                	bnez	a5,272c <sbi_ffs+0xb8>
    2722:	fec42783          	lw	a5,-20(s0)
    2726:	2785                	addiw	a5,a5,1
    2728:	fef42623          	sw	a5,-20(s0)
    272c:	fec42783          	lw	a5,-20(s0)
    2730:	853e                	mv	a0,a5
    2732:	7422                	ld	s0,40(sp)
    2734:	6145                	addi	sp,sp,48
    2736:	8082                	ret

0000000000002738 <sbi_fls>:
    2738:	7179                	addi	sp,sp,-48
    273a:	f422                	sd	s0,40(sp)
    273c:	1800                	addi	s0,sp,48
    273e:	fca43c23          	sd	a0,-40(s0)
    2742:	03f00793          	li	a5,63
    2746:	fef42623          	sw	a5,-20(s0)
    274a:	fd843703          	ld	a4,-40(s0)
    274e:	57fd                	li	a5,-1
    2750:	9381                	srli	a5,a5,0x20
    2752:	00e7ec63          	bltu	a5,a4,276a <sbi_fls+0x32>
    2756:	fec42783          	lw	a5,-20(s0)
    275a:	3781                	addiw	a5,a5,-32
    275c:	fef42623          	sw	a5,-20(s0)
    2760:	fd843783          	ld	a5,-40(s0)
    2764:	1782                	slli	a5,a5,0x20
    2766:	fcf43c23          	sd	a5,-40(s0)
    276a:	fd843703          	ld	a4,-40(s0)
    276e:	57fd                	li	a5,-1
    2770:	83c1                	srli	a5,a5,0x10
    2772:	00e7ec63          	bltu	a5,a4,278a <sbi_fls+0x52>
    2776:	fec42783          	lw	a5,-20(s0)
    277a:	37c1                	addiw	a5,a5,-16
    277c:	fef42623          	sw	a5,-20(s0)
    2780:	fd843783          	ld	a5,-40(s0)
    2784:	07c2                	slli	a5,a5,0x10
    2786:	fcf43c23          	sd	a5,-40(s0)
    278a:	fd843703          	ld	a4,-40(s0)
    278e:	57fd                	li	a5,-1
    2790:	83a1                	srli	a5,a5,0x8
    2792:	00e7ec63          	bltu	a5,a4,27aa <sbi_fls+0x72>
    2796:	fec42783          	lw	a5,-20(s0)
    279a:	37e1                	addiw	a5,a5,-8
    279c:	fef42623          	sw	a5,-20(s0)
    27a0:	fd843783          	ld	a5,-40(s0)
    27a4:	07a2                	slli	a5,a5,0x8
    27a6:	fcf43c23          	sd	a5,-40(s0)
    27aa:	fd843703          	ld	a4,-40(s0)
    27ae:	57fd                	li	a5,-1
    27b0:	8391                	srli	a5,a5,0x4
    27b2:	00e7ec63          	bltu	a5,a4,27ca <sbi_fls+0x92>
    27b6:	fec42783          	lw	a5,-20(s0)
    27ba:	37f1                	addiw	a5,a5,-4
    27bc:	fef42623          	sw	a5,-20(s0)
    27c0:	fd843783          	ld	a5,-40(s0)
    27c4:	0792                	slli	a5,a5,0x4
    27c6:	fcf43c23          	sd	a5,-40(s0)
    27ca:	fd843703          	ld	a4,-40(s0)
    27ce:	57fd                	li	a5,-1
    27d0:	8389                	srli	a5,a5,0x2
    27d2:	00e7ec63          	bltu	a5,a4,27ea <sbi_fls+0xb2>
    27d6:	fec42783          	lw	a5,-20(s0)
    27da:	37f9                	addiw	a5,a5,-2
    27dc:	fef42623          	sw	a5,-20(s0)
    27e0:	fd843783          	ld	a5,-40(s0)
    27e4:	078a                	slli	a5,a5,0x2
    27e6:	fcf43c23          	sd	a5,-40(s0)
    27ea:	fd843783          	ld	a5,-40(s0)
    27ee:	0007c763          	bltz	a5,27fc <sbi_fls+0xc4>
    27f2:	fec42783          	lw	a5,-20(s0)
    27f6:	37fd                	addiw	a5,a5,-1
    27f8:	fef42623          	sw	a5,-20(s0)
    27fc:	fec42783          	lw	a5,-20(s0)
    2800:	853e                	mv	a0,a5
    2802:	7422                	ld	s0,40(sp)
    2804:	6145                	addi	sp,sp,48
    2806:	8082                	ret

0000000000002808 <__set_bit>:
    2808:	7179                	addi	sp,sp,-48
    280a:	f422                	sd	s0,40(sp)
    280c:	1800                	addi	s0,sp,48
    280e:	87aa                	mv	a5,a0
    2810:	fcb43823          	sd	a1,-48(s0)
    2814:	fcf42e23          	sw	a5,-36(s0)
    2818:	fdc42783          	lw	a5,-36(s0)
    281c:	03f7f793          	andi	a5,a5,63
    2820:	2781                	sext.w	a5,a5
    2822:	873e                	mv	a4,a5
    2824:	4785                	li	a5,1
    2826:	00e797b3          	sll	a5,a5,a4
    282a:	fef43423          	sd	a5,-24(s0)
    282e:	fdc42783          	lw	a5,-36(s0)
    2832:	41f7d71b          	sraiw	a4,a5,0x1f
    2836:	01a7571b          	srliw	a4,a4,0x1a
    283a:	9fb9                	addw	a5,a5,a4
    283c:	4067d79b          	sraiw	a5,a5,0x6
    2840:	2781                	sext.w	a5,a5
    2842:	078e                	slli	a5,a5,0x3
    2844:	fd043703          	ld	a4,-48(s0)
    2848:	97ba                	add	a5,a5,a4
    284a:	fef43023          	sd	a5,-32(s0)
    284e:	fe043783          	ld	a5,-32(s0)
    2852:	6398                	ld	a4,0(a5)
    2854:	fe843783          	ld	a5,-24(s0)
    2858:	8f5d                	or	a4,a4,a5
    285a:	fe043783          	ld	a5,-32(s0)
    285e:	e398                	sd	a4,0(a5)
    2860:	0001                	nop
    2862:	7422                	ld	s0,40(sp)
    2864:	6145                	addi	sp,sp,48
    2866:	8082                	ret

0000000000002868 <__clear_bit>:
    2868:	7179                	addi	sp,sp,-48
    286a:	f422                	sd	s0,40(sp)
    286c:	1800                	addi	s0,sp,48
    286e:	87aa                	mv	a5,a0
    2870:	fcb43823          	sd	a1,-48(s0)
    2874:	fcf42e23          	sw	a5,-36(s0)
    2878:	fdc42783          	lw	a5,-36(s0)
    287c:	03f7f793          	andi	a5,a5,63
    2880:	2781                	sext.w	a5,a5
    2882:	873e                	mv	a4,a5
    2884:	4785                	li	a5,1
    2886:	00e797b3          	sll	a5,a5,a4
    288a:	fef43423          	sd	a5,-24(s0)
    288e:	fdc42783          	lw	a5,-36(s0)
    2892:	41f7d71b          	sraiw	a4,a5,0x1f
    2896:	01a7571b          	srliw	a4,a4,0x1a
    289a:	9fb9                	addw	a5,a5,a4
    289c:	4067d79b          	sraiw	a5,a5,0x6
    28a0:	2781                	sext.w	a5,a5
    28a2:	078e                	slli	a5,a5,0x3
    28a4:	fd043703          	ld	a4,-48(s0)
    28a8:	97ba                	add	a5,a5,a4
    28aa:	fef43023          	sd	a5,-32(s0)
    28ae:	fe043783          	ld	a5,-32(s0)
    28b2:	6398                	ld	a4,0(a5)
    28b4:	fe843783          	ld	a5,-24(s0)
    28b8:	fff7c793          	not	a5,a5
    28bc:	8f7d                	and	a4,a4,a5
    28be:	fe043783          	ld	a5,-32(s0)
    28c2:	e398                	sd	a4,0(a5)
    28c4:	0001                	nop
    28c6:	7422                	ld	s0,40(sp)
    28c8:	6145                	addi	sp,sp,48
    28ca:	8082                	ret

00000000000028cc <__test_bit>:
    28cc:	1101                	addi	sp,sp,-32
    28ce:	ec22                	sd	s0,24(sp)
    28d0:	1000                	addi	s0,sp,32
    28d2:	87aa                	mv	a5,a0
    28d4:	feb43023          	sd	a1,-32(s0)
    28d8:	fef42623          	sw	a5,-20(s0)
    28dc:	fec42783          	lw	a5,-20(s0)
    28e0:	41f7d71b          	sraiw	a4,a5,0x1f
    28e4:	01a7571b          	srliw	a4,a4,0x1a
    28e8:	9fb9                	addw	a5,a5,a4
    28ea:	4067d79b          	sraiw	a5,a5,0x6
    28ee:	2781                	sext.w	a5,a5
    28f0:	078e                	slli	a5,a5,0x3
    28f2:	fe043703          	ld	a4,-32(s0)
    28f6:	97ba                	add	a5,a5,a4
    28f8:	639c                	ld	a5,0(a5)
    28fa:	fec42703          	lw	a4,-20(s0)
    28fe:	03f77713          	andi	a4,a4,63
    2902:	2701                	sext.w	a4,a4
    2904:	00e7d7b3          	srl	a5,a5,a4
    2908:	2781                	sext.w	a5,a5
    290a:	8b85                	andi	a5,a5,1
    290c:	2781                	sext.w	a5,a5
    290e:	853e                	mv	a0,a5
    2910:	6462                	ld	s0,24(sp)
    2912:	6105                	addi	sp,sp,32
    2914:	8082                	ret

0000000000002916 <sbi_zalloc>:
    2916:	1101                	addi	sp,sp,-32
    2918:	ec06                	sd	ra,24(sp)
    291a:	e822                	sd	s0,16(sp)
    291c:	1000                	addi	s0,sp,32
    291e:	fea43423          	sd	a0,-24(s0)
    2922:	fe843583          	ld	a1,-24(s0)
    2926:	00080517          	auipc	a0,0x80
    292a:	f4253503          	ld	a0,-190(a0) # 82868 <_GLOBAL_OFFSET_TABLE_+0x108>
    292e:	517180ef          	jal	1b644 <sbi_zalloc_from>
    2932:	87aa                	mv	a5,a0
    2934:	853e                	mv	a0,a5
    2936:	60e2                	ld	ra,24(sp)
    2938:	6442                	ld	s0,16(sp)
    293a:	6105                	addi	sp,sp,32
    293c:	8082                	ret

000000000000293e <sbi_calloc>:
    293e:	1101                	addi	sp,sp,-32
    2940:	ec06                	sd	ra,24(sp)
    2942:	e822                	sd	s0,16(sp)
    2944:	1000                	addi	s0,sp,32
    2946:	fea43423          	sd	a0,-24(s0)
    294a:	feb43023          	sd	a1,-32(s0)
    294e:	fe843703          	ld	a4,-24(s0)
    2952:	fe043783          	ld	a5,-32(s0)
    2956:	02f707b3          	mul	a5,a4,a5
    295a:	853e                	mv	a0,a5
    295c:	fbbff0ef          	jal	2916 <sbi_zalloc>
    2960:	87aa                	mv	a5,a0
    2962:	853e                	mv	a0,a5
    2964:	60e2                	ld	ra,24(sp)
    2966:	6442                	ld	s0,16(sp)
    2968:	6105                	addi	sp,sp,32
    296a:	8082                	ret

000000000000296c <sbi_free>:
    296c:	1101                	addi	sp,sp,-32
    296e:	ec06                	sd	ra,24(sp)
    2970:	e822                	sd	s0,16(sp)
    2972:	1000                	addi	s0,sp,32
    2974:	fea43423          	sd	a0,-24(s0)
    2978:	fe843583          	ld	a1,-24(s0)
    297c:	00080517          	auipc	a0,0x80
    2980:	eec53503          	ld	a0,-276(a0) # 82868 <_GLOBAL_OFFSET_TABLE_+0x108>
    2984:	503180ef          	jal	1b686 <sbi_free_from>
    2988:	60e2                	ld	ra,24(sp)
    298a:	6442                	ld	s0,16(sp)
    298c:	6105                	addi	sp,sp,32
    298e:	8082                	ret

0000000000002990 <sbi_platform_pmu_init>:
    2990:	1101                	addi	sp,sp,-32
    2992:	ec06                	sd	ra,24(sp)
    2994:	e822                	sd	s0,16(sp)
    2996:	1000                	addi	s0,sp,32
    2998:	fea43423          	sd	a0,-24(s0)
    299c:	fe843783          	ld	a5,-24(s0)
    29a0:	cf89                	beqz	a5,29ba <sbi_platform_pmu_init+0x2a>
    29a2:	fe843783          	ld	a5,-24(s0)
    29a6:	73bc                	ld	a5,96(a5)
    29a8:	6bbc                	ld	a5,80(a5)
    29aa:	cb81                	beqz	a5,29ba <sbi_platform_pmu_init+0x2a>
    29ac:	fe843783          	ld	a5,-24(s0)
    29b0:	73bc                	ld	a5,96(a5)
    29b2:	6bbc                	ld	a5,80(a5)
    29b4:	9782                	jalr	a5
    29b6:	87aa                	mv	a5,a0
    29b8:	a011                	j	29bc <sbi_platform_pmu_init+0x2c>
    29ba:	4781                	li	a5,0
    29bc:	853e                	mv	a0,a5
    29be:	60e2                	ld	ra,24(sp)
    29c0:	6442                	ld	s0,16(sp)
    29c2:	6105                	addi	sp,sp,32
    29c4:	8082                	ret

00000000000029c6 <sbi_platform_pmu_xlate_to_mhpmevent>:
    29c6:	7179                	addi	sp,sp,-48
    29c8:	f406                	sd	ra,40(sp)
    29ca:	f022                	sd	s0,32(sp)
    29cc:	1800                	addi	s0,sp,48
    29ce:	fea43423          	sd	a0,-24(s0)
    29d2:	87ae                	mv	a5,a1
    29d4:	fcc43c23          	sd	a2,-40(s0)
    29d8:	fef42223          	sw	a5,-28(s0)
    29dc:	fe843783          	ld	a5,-24(s0)
    29e0:	c395                	beqz	a5,2a04 <sbi_platform_pmu_xlate_to_mhpmevent+0x3e>
    29e2:	fe843783          	ld	a5,-24(s0)
    29e6:	73bc                	ld	a5,96(a5)
    29e8:	6fbc                	ld	a5,88(a5)
    29ea:	cf89                	beqz	a5,2a04 <sbi_platform_pmu_xlate_to_mhpmevent+0x3e>
    29ec:	fe843783          	ld	a5,-24(s0)
    29f0:	73bc                	ld	a5,96(a5)
    29f2:	6fbc                	ld	a5,88(a5)
    29f4:	fe442703          	lw	a4,-28(s0)
    29f8:	fd843583          	ld	a1,-40(s0)
    29fc:	853a                	mv	a0,a4
    29fe:	9782                	jalr	a5
    2a00:	87aa                	mv	a5,a0
    2a02:	a011                	j	2a06 <sbi_platform_pmu_xlate_to_mhpmevent+0x40>
    2a04:	4781                	li	a5,0
    2a06:	853e                	mv	a0,a5
    2a08:	70a2                	ld	ra,40(sp)
    2a0a:	7402                	ld	s0,32(sp)
    2a0c:	6145                	addi	sp,sp,48
    2a0e:	8082                	ret

0000000000002a10 <pmu_event_range_overlap>:
    2a10:	1101                	addi	sp,sp,-32
    2a12:	ec22                	sd	s0,24(sp)
    2a14:	1000                	addi	s0,sp,32
    2a16:	fea43423          	sd	a0,-24(s0)
    2a1a:	feb43023          	sd	a1,-32(s0)
    2a1e:	fe843783          	ld	a5,-24(s0)
    2a22:	4798                	lw	a4,8(a5)
    2a24:	fe043783          	ld	a5,-32(s0)
    2a28:	43dc                	lw	a5,4(a5)
    2a2a:	00f77a63          	bgeu	a4,a5,2a3e <pmu_event_range_overlap+0x2e>
    2a2e:	fe843783          	ld	a5,-24(s0)
    2a32:	4798                	lw	a4,8(a5)
    2a34:	fe043783          	ld	a5,-32(s0)
    2a38:	479c                	lw	a5,8(a5)
    2a3a:	02f76263          	bltu	a4,a5,2a5e <pmu_event_range_overlap+0x4e>
    2a3e:	fe843783          	ld	a5,-24(s0)
    2a42:	43d8                	lw	a4,4(a5)
    2a44:	fe043783          	ld	a5,-32(s0)
    2a48:	43dc                	lw	a5,4(a5)
    2a4a:	00e7fc63          	bgeu	a5,a4,2a62 <pmu_event_range_overlap+0x52>
    2a4e:	fe843783          	ld	a5,-24(s0)
    2a52:	43d8                	lw	a4,4(a5)
    2a54:	fe043783          	ld	a5,-32(s0)
    2a58:	479c                	lw	a5,8(a5)
    2a5a:	00e7f463          	bgeu	a5,a4,2a62 <pmu_event_range_overlap+0x52>
    2a5e:	4781                	li	a5,0
    2a60:	a011                	j	2a64 <pmu_event_range_overlap+0x54>
    2a62:	4785                	li	a5,1
    2a64:	853e                	mv	a0,a5
    2a66:	6462                	ld	s0,24(sp)
    2a68:	6105                	addi	sp,sp,32
    2a6a:	8082                	ret

0000000000002a6c <pmu_event_select_overlap>:
    2a6c:	7179                	addi	sp,sp,-48
    2a6e:	f422                	sd	s0,40(sp)
    2a70:	1800                	addi	s0,sp,48
    2a72:	fea43423          	sd	a0,-24(s0)
    2a76:	feb43023          	sd	a1,-32(s0)
    2a7a:	fcc43c23          	sd	a2,-40(s0)
    2a7e:	fe843783          	ld	a5,-24(s0)
    2a82:	6b9c                	ld	a5,16(a5)
    2a84:	fe043703          	ld	a4,-32(s0)
    2a88:	00f71b63          	bne	a4,a5,2a9e <pmu_event_select_overlap+0x32>
    2a8c:	fe843783          	ld	a5,-24(s0)
    2a90:	6f9c                	ld	a5,24(a5)
    2a92:	fd843703          	ld	a4,-40(s0)
    2a96:	00f71463          	bne	a4,a5,2a9e <pmu_event_select_overlap+0x32>
    2a9a:	4785                	li	a5,1
    2a9c:	a011                	j	2aa0 <pmu_event_select_overlap+0x34>
    2a9e:	4781                	li	a5,0
    2aa0:	853e                	mv	a0,a5
    2aa2:	7422                	ld	s0,40(sp)
    2aa4:	6145                	addi	sp,sp,48
    2aa6:	8082                	ret

0000000000002aa8 <pmu_event_validate>:
    2aa8:	715d                	addi	sp,sp,-80
    2aaa:	e486                	sd	ra,72(sp)
    2aac:	e0a2                	sd	s0,64(sp)
    2aae:	0880                	addi	s0,sp,80
    2ab0:	fca43423          	sd	a0,-56(s0)
    2ab4:	fcb43023          	sd	a1,-64(s0)
    2ab8:	fac43c23          	sd	a2,-72(s0)
    2abc:	fc043783          	ld	a5,-64(s0)
    2ac0:	83c1                	srli	a5,a5,0x10
    2ac2:	2781                	sext.w	a5,a5
    2ac4:	8bbd                	andi	a5,a5,15
    2ac6:	fef42423          	sw	a5,-24(s0)
    2aca:	fc043783          	ld	a5,-64(s0)
    2ace:	2781                	sext.w	a5,a5
    2ad0:	873e                	mv	a4,a5
    2ad2:	67c1                	lui	a5,0x10
    2ad4:	17fd                	addi	a5,a5,-1 # ffff <sbi_ecall_time_register_extensions+0x17>
    2ad6:	8ff9                	and	a5,a5,a4
    2ad8:	fef42223          	sw	a5,-28(s0)
    2adc:	57fd                	li	a5,-1
    2ade:	fef42623          	sw	a5,-20(s0)
    2ae2:	fe842783          	lw	a5,-24(s0)
    2ae6:	0007871b          	sext.w	a4,a5
    2aea:	47bd                	li	a5,15
    2aec:	04f70763          	beq	a4,a5,2b3a <pmu_event_validate+0x92>
    2af0:	fe842783          	lw	a5,-24(s0)
    2af4:	0007871b          	sext.w	a4,a5
    2af8:	47bd                	li	a5,15
    2afa:	12e7e663          	bltu	a5,a4,2c26 <pmu_event_validate+0x17e>
    2afe:	fe842783          	lw	a5,-24(s0)
    2b02:	0007871b          	sext.w	a4,a5
    2b06:	4789                	li	a5,2
    2b08:	10f70b63          	beq	a4,a5,2c1e <pmu_event_validate+0x176>
    2b0c:	fe842783          	lw	a5,-24(s0)
    2b10:	0007871b          	sext.w	a4,a5
    2b14:	4789                	li	a5,2
    2b16:	10e7e863          	bltu	a5,a4,2c26 <pmu_event_validate+0x17e>
    2b1a:	fe842783          	lw	a5,-24(s0)
    2b1e:	2781                	sext.w	a5,a5
    2b20:	cb89                	beqz	a5,2b32 <pmu_event_validate+0x8a>
    2b22:	fe842783          	lw	a5,-24(s0)
    2b26:	0007871b          	sext.w	a4,a5
    2b2a:	4785                	li	a5,1
    2b2c:	08f70763          	beq	a4,a5,2bba <pmu_event_validate+0x112>
    2b30:	a8dd                	j	2c26 <pmu_event_validate+0x17e>
    2b32:	47ad                	li	a5,11
    2b34:	fef42623          	sw	a5,-20(s0)
    2b38:	a8cd                	j	2c2a <pmu_event_validate+0x182>
    2b3a:	fe442783          	lw	a5,-28(s0)
    2b3e:	0007871b          	sext.w	a4,a5
    2b42:	47d5                	li	a5,21
    2b44:	00e7fa63          	bgeu	a5,a4,2b58 <pmu_event_validate+0xb0>
    2b48:	fe442783          	lw	a5,-28(s0)
    2b4c:	0007871b          	sext.w	a4,a5
    2b50:	67c1                	lui	a5,0x10
    2b52:	17f9                	addi	a5,a5,-2 # fffe <sbi_ecall_time_register_extensions+0x16>
    2b54:	00e7f963          	bgeu	a5,a4,2b66 <pmu_event_validate+0xbe>
    2b58:	fe442783          	lw	a5,-28(s0)
    2b5c:	0007871b          	sext.w	a4,a5
    2b60:	67c1                	lui	a5,0x10
    2b62:	00f76463          	bltu	a4,a5,2b6a <pmu_event_validate+0xc2>
    2b66:	57f5                	li	a5,-3
    2b68:	a8f1                	j	2c44 <pmu_event_validate+0x19c>
    2b6a:	fe442783          	lw	a5,-28(s0)
    2b6e:	0007871b          	sext.w	a4,a5
    2b72:	67c1                	lui	a5,0x10
    2b74:	17fd                	addi	a5,a5,-1 # ffff <sbi_ecall_time_register_extensions+0x17>
    2b76:	02f71e63          	bne	a4,a5,2bb2 <pmu_event_validate+0x10a>
    2b7a:	00080797          	auipc	a5,0x80
    2b7e:	6be78793          	addi	a5,a5,1726 # 83238 <pmu_dev>
    2b82:	639c                	ld	a5,0(a5)
    2b84:	c79d                	beqz	a5,2bb2 <pmu_event_validate+0x10a>
    2b86:	00080797          	auipc	a5,0x80
    2b8a:	6b278793          	addi	a5,a5,1714 # 83238 <pmu_dev>
    2b8e:	639c                	ld	a5,0(a5)
    2b90:	739c                	ld	a5,32(a5)
    2b92:	c385                	beqz	a5,2bb2 <pmu_event_validate+0x10a>
    2b94:	00080797          	auipc	a5,0x80
    2b98:	6a478793          	addi	a5,a5,1700 # 83238 <pmu_dev>
    2b9c:	639c                	ld	a5,0(a5)
    2b9e:	739c                	ld	a5,32(a5)
    2ba0:	fc843703          	ld	a4,-56(s0)
    2ba4:	4318                	lw	a4,0(a4)
    2ba6:	fb843583          	ld	a1,-72(s0)
    2baa:	853a                	mv	a0,a4
    2bac:	9782                	jalr	a5
    2bae:	87aa                	mv	a5,a0
    2bb0:	a851                	j	2c44 <pmu_event_validate+0x19c>
    2bb2:	47d9                	li	a5,22
    2bb4:	fef42623          	sw	a5,-20(s0)
    2bb8:	a88d                	j	2c2a <pmu_event_validate+0x182>
    2bba:	fe442783          	lw	a5,-28(s0)
    2bbe:	8b85                	andi	a5,a5,1
    2bc0:	fef42023          	sw	a5,-32(s0)
    2bc4:	fe442783          	lw	a5,-28(s0)
    2bc8:	0017d79b          	srliw	a5,a5,0x1
    2bcc:	2781                	sext.w	a5,a5
    2bce:	8b8d                	andi	a5,a5,3
    2bd0:	fcf42e23          	sw	a5,-36(s0)
    2bd4:	fe442783          	lw	a5,-28(s0)
    2bd8:	0037d79b          	srliw	a5,a5,0x3
    2bdc:	2781                	sext.w	a5,a5
    2bde:	873e                	mv	a4,a5
    2be0:	6789                	lui	a5,0x2
    2be2:	17fd                	addi	a5,a5,-1 # 1fff <sbi_ipi_send_halt+0x5>
    2be4:	8ff9                	and	a5,a5,a4
    2be6:	fcf42c23          	sw	a5,-40(s0)
    2bea:	fe042783          	lw	a5,-32(s0)
    2bee:	0007871b          	sext.w	a4,a5
    2bf2:	4785                	li	a5,1
    2bf4:	02e7e363          	bltu	a5,a4,2c1a <pmu_event_validate+0x172>
    2bf8:	fdc42783          	lw	a5,-36(s0)
    2bfc:	0007871b          	sext.w	a4,a5
    2c00:	4789                	li	a5,2
    2c02:	00e7ec63          	bltu	a5,a4,2c1a <pmu_event_validate+0x172>
    2c06:	fd842783          	lw	a5,-40(s0)
    2c0a:	0007871b          	sext.w	a4,a5
    2c0e:	4799                	li	a5,6
    2c10:	00e7e563          	bltu	a5,a4,2c1a <pmu_event_validate+0x172>
    2c14:	fe842783          	lw	a5,-24(s0)
    2c18:	a035                	j	2c44 <pmu_event_validate+0x19c>
    2c1a:	57f5                	li	a5,-3
    2c1c:	a025                	j	2c44 <pmu_event_validate+0x19c>
    2c1e:	4785                	li	a5,1
    2c20:	fef42623          	sw	a5,-20(s0)
    2c24:	a019                	j	2c2a <pmu_event_validate+0x182>
    2c26:	57f5                	li	a5,-3
    2c28:	a831                	j	2c44 <pmu_event_validate+0x19c>
    2c2a:	fe442783          	lw	a5,-28(s0)
    2c2e:	873e                	mv	a4,a5
    2c30:	fec42783          	lw	a5,-20(s0)
    2c34:	2701                	sext.w	a4,a4
    2c36:	2781                	sext.w	a5,a5
    2c38:	00f77563          	bgeu	a4,a5,2c42 <pmu_event_validate+0x19a>
    2c3c:	fe842783          	lw	a5,-24(s0)
    2c40:	a011                	j	2c44 <pmu_event_validate+0x19c>
    2c42:	57f5                	li	a5,-3
    2c44:	853e                	mv	a0,a5
    2c46:	60a6                	ld	ra,72(sp)
    2c48:	6406                	ld	s0,64(sp)
    2c4a:	6161                	addi	sp,sp,80
    2c4c:	8082                	ret

0000000000002c4e <pmu_ctr_validate>:
    2c4e:	7139                	addi	sp,sp,-64
    2c50:	fc22                	sd	s0,56(sp)
    2c52:	0080                	addi	s0,sp,64
    2c54:	fca43c23          	sd	a0,-40(s0)
    2c58:	87ae                	mv	a5,a1
    2c5a:	fcc43423          	sd	a2,-56(s0)
    2c5e:	fcf42a23          	sw	a5,-44(s0)
    2c62:	00080797          	auipc	a5,0x80
    2c66:	5ee78793          	addi	a5,a5,1518 # 83250 <total_ctrs>
    2c6a:	4398                	lw	a4,0(a5)
    2c6c:	fd442783          	lw	a5,-44(s0)
    2c70:	2781                	sext.w	a5,a5
    2c72:	00e7e463          	bltu	a5,a4,2c7a <pmu_ctr_validate+0x2c>
    2c76:	57f5                	li	a5,-3
    2c78:	a8b9                	j	2cd6 <pmu_ctr_validate+0x88>
    2c7a:	fd843703          	ld	a4,-40(s0)
    2c7e:	fd446783          	lwu	a5,-44(s0)
    2c82:	078a                	slli	a5,a5,0x2
    2c84:	97ba                	add	a5,a5,a4
    2c86:	43dc                	lw	a5,4(a5)
    2c88:	fef42623          	sw	a5,-20(s0)
    2c8c:	fec42783          	lw	a5,-20(s0)
    2c90:	0107d79b          	srliw	a5,a5,0x10
    2c94:	2781                	sext.w	a5,a5
    2c96:	8bbd                	andi	a5,a5,15
    2c98:	fef42423          	sw	a5,-24(s0)
    2c9c:	fec42783          	lw	a5,-20(s0)
    2ca0:	0007871b          	sext.w	a4,a5
    2ca4:	57fd                	li	a5,-1
    2ca6:	00f70963          	beq	a4,a5,2cb8 <pmu_ctr_validate+0x6a>
    2caa:	fe842783          	lw	a5,-24(s0)
    2cae:	0007871b          	sext.w	a4,a5
    2cb2:	47bd                	li	a5,15
    2cb4:	00e7f463          	bgeu	a5,a4,2cbc <pmu_ctr_validate+0x6e>
    2cb8:	57f5                	li	a5,-3
    2cba:	a831                	j	2cd6 <pmu_ctr_validate+0x88>
    2cbc:	fec42783          	lw	a5,-20(s0)
    2cc0:	873e                	mv	a4,a5
    2cc2:	67c1                	lui	a5,0x10
    2cc4:	17fd                	addi	a5,a5,-1 # ffff <sbi_ecall_time_register_extensions+0x17>
    2cc6:	8ff9                	and	a5,a5,a4
    2cc8:	0007871b          	sext.w	a4,a5
    2ccc:	fc843783          	ld	a5,-56(s0)
    2cd0:	c398                	sw	a4,0(a5)
    2cd2:	fe842783          	lw	a5,-24(s0)
    2cd6:	853e                	mv	a0,a5
    2cd8:	7462                	ld	s0,56(sp)
    2cda:	6121                	addi	sp,sp,64
    2cdc:	8082                	ret

0000000000002cde <sbi_pmu_ctr_fw_read>:
    2cde:	7139                	addi	sp,sp,-64
    2ce0:	fc06                	sd	ra,56(sp)
    2ce2:	f822                	sd	s0,48(sp)
    2ce4:	f426                	sd	s1,40(sp)
    2ce6:	0080                	addi	s0,sp,64
    2ce8:	87aa                	mv	a5,a0
    2cea:	fcb43023          	sd	a1,-64(s0)
    2cee:	fcf42623          	sw	a5,-52(s0)
    2cf2:	00080797          	auipc	a5,0x80
    2cf6:	53e78793          	addi	a5,a5,1342 # 83230 <phs_ptr_offset>
    2cfa:	639c                	ld	a5,0(a5)
    2cfc:	cf89                	beqz	a5,2d16 <sbi_pmu_ctr_fw_read+0x38>
    2cfe:	340027f3          	csrr	a5,mscratch
    2d02:	84be                	mv	s1,a5
    2d04:	8726                	mv	a4,s1
    2d06:	00080797          	auipc	a5,0x80
    2d0a:	52a78793          	addi	a5,a5,1322 # 83230 <phs_ptr_offset>
    2d0e:	639c                	ld	a5,0(a5)
    2d10:	97ba                	add	a5,a5,a4
    2d12:	639c                	ld	a5,0(a5)
    2d14:	a011                	j	2d18 <sbi_pmu_ctr_fw_read+0x3a>
    2d16:	4781                	li	a5,0
    2d18:	fcf43c23          	sd	a5,-40(s0)
    2d1c:	fd843783          	ld	a5,-40(s0)
    2d20:	0017b793          	seqz	a5,a5
    2d24:	0ff7f793          	zext.b	a5,a5
    2d28:	c399                	beqz	a5,2d2e <sbi_pmu_ctr_fw_read+0x50>
    2d2a:	57f5                	li	a5,-3
    2d2c:	a0f5                	j	2e18 <sbi_pmu_ctr_fw_read+0x13a>
    2d2e:	fd040713          	addi	a4,s0,-48
    2d32:	fcc42783          	lw	a5,-52(s0)
    2d36:	863a                	mv	a2,a4
    2d38:	85be                	mv	a1,a5
    2d3a:	fd843503          	ld	a0,-40(s0)
    2d3e:	f11ff0ef          	jal	2c4e <pmu_ctr_validate>
    2d42:	87aa                	mv	a5,a0
    2d44:	fcf42a23          	sw	a5,-44(s0)
    2d48:	fd442783          	lw	a5,-44(s0)
    2d4c:	0007871b          	sext.w	a4,a5
    2d50:	47bd                	li	a5,15
    2d52:	00f70463          	beq	a4,a5,2d5a <sbi_pmu_ctr_fw_read+0x7c>
    2d56:	57f5                	li	a5,-3
    2d58:	a0c1                	j	2e18 <sbi_pmu_ctr_fw_read+0x13a>
    2d5a:	fd042783          	lw	a5,-48(s0)
    2d5e:	873e                	mv	a4,a5
    2d60:	47d5                	li	a5,21
    2d62:	00e7f963          	bgeu	a5,a4,2d74 <sbi_pmu_ctr_fw_read+0x96>
    2d66:	fd042783          	lw	a5,-48(s0)
    2d6a:	873e                	mv	a4,a5
    2d6c:	67c1                	lui	a5,0x10
    2d6e:	17f9                	addi	a5,a5,-2 # fffe <sbi_ecall_time_register_extensions+0x16>
    2d70:	00e7f863          	bgeu	a5,a4,2d80 <sbi_pmu_ctr_fw_read+0xa2>
    2d74:	fd042783          	lw	a5,-48(s0)
    2d78:	873e                	mv	a4,a5
    2d7a:	67c1                	lui	a5,0x10
    2d7c:	00f76463          	bltu	a4,a5,2d84 <sbi_pmu_ctr_fw_read+0xa6>
    2d80:	57f5                	li	a5,-3
    2d82:	a859                	j	2e18 <sbi_pmu_ctr_fw_read+0x13a>
    2d84:	fd042783          	lw	a5,-48(s0)
    2d88:	873e                	mv	a4,a5
    2d8a:	67c1                	lui	a5,0x10
    2d8c:	17fd                	addi	a5,a5,-1 # ffff <sbi_ecall_time_register_extensions+0x17>
    2d8e:	04f71f63          	bne	a4,a5,2dec <sbi_pmu_ctr_fw_read+0x10e>
    2d92:	00080797          	auipc	a5,0x80
    2d96:	4a678793          	addi	a5,a5,1190 # 83238 <pmu_dev>
    2d9a:	639c                	ld	a5,0(a5)
    2d9c:	c3b9                	beqz	a5,2de2 <sbi_pmu_ctr_fw_read+0x104>
    2d9e:	00080797          	auipc	a5,0x80
    2da2:	49a78793          	addi	a5,a5,1178 # 83238 <pmu_dev>
    2da6:	639c                	ld	a5,0(a5)
    2da8:	7f9c                	ld	a5,56(a5)
    2daa:	cf85                	beqz	a5,2de2 <sbi_pmu_ctr_fw_read+0x104>
    2dac:	00080797          	auipc	a5,0x80
    2db0:	48c78793          	addi	a5,a5,1164 # 83238 <pmu_dev>
    2db4:	639c                	ld	a5,0(a5)
    2db6:	7f9c                	ld	a5,56(a5)
    2db8:	fd843703          	ld	a4,-40(s0)
    2dbc:	4314                	lw	a3,0(a4)
    2dbe:	00080717          	auipc	a4,0x80
    2dc2:	48e70713          	addi	a4,a4,1166 # 8324c <num_hw_ctrs>
    2dc6:	4318                	lw	a4,0(a4)
    2dc8:	fcc42603          	lw	a2,-52(s0)
    2dcc:	40e6073b          	subw	a4,a2,a4
    2dd0:	2701                	sext.w	a4,a4
    2dd2:	85ba                	mv	a1,a4
    2dd4:	8536                	mv	a0,a3
    2dd6:	9782                	jalr	a5
    2dd8:	872a                	mv	a4,a0
    2dda:	fc043783          	ld	a5,-64(s0)
    2dde:	e398                	sd	a4,0(a5)
    2de0:	a81d                	j	2e16 <sbi_pmu_ctr_fw_read+0x138>
    2de2:	fc043783          	ld	a5,-64(s0)
    2de6:	0007b023          	sd	zero,0(a5)
    2dea:	a035                	j	2e16 <sbi_pmu_ctr_fw_read+0x138>
    2dec:	00080797          	auipc	a5,0x80
    2df0:	46078793          	addi	a5,a5,1120 # 8324c <num_hw_ctrs>
    2df4:	439c                	lw	a5,0(a5)
    2df6:	fcc42703          	lw	a4,-52(s0)
    2dfa:	40f707bb          	subw	a5,a4,a5
    2dfe:	2781                	sext.w	a5,a5
    2e00:	fd843703          	ld	a4,-40(s0)
    2e04:	1782                	slli	a5,a5,0x20
    2e06:	9381                	srli	a5,a5,0x20
    2e08:	07e9                	addi	a5,a5,26
    2e0a:	078e                	slli	a5,a5,0x3
    2e0c:	97ba                	add	a5,a5,a4
    2e0e:	6798                	ld	a4,8(a5)
    2e10:	fc043783          	ld	a5,-64(s0)
    2e14:	e398                	sd	a4,0(a5)
    2e16:	4781                	li	a5,0
    2e18:	853e                	mv	a0,a5
    2e1a:	70e2                	ld	ra,56(sp)
    2e1c:	7442                	ld	s0,48(sp)
    2e1e:	74a2                	ld	s1,40(sp)
    2e20:	6121                	addi	sp,sp,64
    2e22:	8082                	ret

0000000000002e24 <pmu_add_hw_event_map>:
    2e24:	715d                	addi	sp,sp,-80
    2e26:	e486                	sd	ra,72(sp)
    2e28:	e0a2                	sd	s0,64(sp)
    2e2a:	0880                	addi	s0,sp,80
    2e2c:	87aa                	mv	a5,a0
    2e2e:	fad43c23          	sd	a3,-72(s0)
    2e32:	fae43823          	sd	a4,-80(s0)
    2e36:	fcf42623          	sw	a5,-52(s0)
    2e3a:	87ae                	mv	a5,a1
    2e3c:	fcf42423          	sw	a5,-56(s0)
    2e40:	87b2                	mv	a5,a2
    2e42:	fcf42223          	sw	a5,-60(s0)
    2e46:	fe042623          	sw	zero,-20(s0)
    2e4a:	00080797          	auipc	a5,0x80
    2e4e:	3f678793          	addi	a5,a5,1014 # 83240 <hw_event_map>
    2e52:	6398                	ld	a4,0(a5)
    2e54:	00080797          	auipc	a5,0x80
    2e58:	3f478793          	addi	a5,a5,1012 # 83248 <num_hw_events>
    2e5c:	439c                	lw	a5,0(a5)
    2e5e:	1782                	slli	a5,a5,0x20
    2e60:	9381                	srli	a5,a5,0x20
    2e62:	0796                	slli	a5,a5,0x5
    2e64:	97ba                	add	a5,a5,a4
    2e66:	fef43023          	sd	a5,-32(s0)
    2e6a:	340027f3          	csrr	a5,mscratch
    2e6e:	80be                	mv	ra,a5
    2e70:	8786                	mv	a5,ra
    2e72:	fcf43c23          	sd	a5,-40(s0)
    2e76:	fd843503          	ld	a0,-40(s0)
    2e7a:	0a7130ef          	jal	16720 <sbi_hart_mhpm_mask>
    2e7e:	87aa                	mv	a5,a0
    2e80:	2781                	sext.w	a5,a5
    2e82:	0077e793          	ori	a5,a5,7
    2e86:	fcf42a23          	sw	a5,-44(s0)
    2e8a:	fcc42783          	lw	a5,-52(s0)
    2e8e:	0007871b          	sext.w	a4,a5
    2e92:	4789                	li	a5,2
    2e94:	00e7f963          	bgeu	a5,a4,2ea6 <pmu_add_hw_event_map+0x82>
    2e98:	fc442783          	lw	a5,-60(s0)
    2e9c:	8b9d                	andi	a5,a5,7
    2e9e:	2781                	sext.w	a5,a5
    2ea0:	c399                	beqz	a5,2ea6 <pmu_add_hw_event_map+0x82>
    2ea2:	57f1                	li	a5,-4
    2ea4:	aa39                	j	2fc2 <pmu_add_hw_event_map+0x19e>
    2ea6:	00080797          	auipc	a5,0x80
    2eaa:	3a278793          	addi	a5,a5,930 # 83248 <num_hw_events>
    2eae:	439c                	lw	a5,0(a5)
    2eb0:	873e                	mv	a4,a5
    2eb2:	0fe00793          	li	a5,254
    2eb6:	00e7fc63          	bgeu	a5,a4,2ece <pmu_add_hw_event_map+0xaa>
    2eba:	10000593          	li	a1,256
    2ebe:	00032517          	auipc	a0,0x32
    2ec2:	93250513          	addi	a0,a0,-1742 # 347f0 <__func__.0+0x28>
    2ec6:	1a2100ef          	jal	13068 <sbi_printf>
    2eca:	57fd                	li	a5,-1
    2ecc:	a8dd                	j	2fc2 <pmu_add_hw_event_map+0x19e>
    2ece:	fe043783          	ld	a5,-32(s0)
    2ed2:	fcc42703          	lw	a4,-52(s0)
    2ed6:	c3d8                	sw	a4,4(a5)
    2ed8:	fe043783          	ld	a5,-32(s0)
    2edc:	fc842703          	lw	a4,-56(s0)
    2ee0:	c798                	sw	a4,8(a5)
    2ee2:	fe042623          	sw	zero,-20(s0)
    2ee6:	a0bd                	j	2f54 <pmu_add_hw_event_map+0x130>
    2ee8:	fcc42783          	lw	a5,-52(s0)
    2eec:	0007871b          	sext.w	a4,a5
    2ef0:	000207b7          	lui	a5,0x20
    2ef4:	02f71663          	bne	a4,a5,2f20 <pmu_add_hw_event_map+0xfc>
    2ef8:	00080797          	auipc	a5,0x80
    2efc:	34878793          	addi	a5,a5,840 # 83240 <hw_event_map>
    2f00:	6398                	ld	a4,0(a5)
    2f02:	fec42783          	lw	a5,-20(s0)
    2f06:	0796                	slli	a5,a5,0x5
    2f08:	97ba                	add	a5,a5,a4
    2f0a:	fb043603          	ld	a2,-80(s0)
    2f0e:	fb843583          	ld	a1,-72(s0)
    2f12:	853e                	mv	a0,a5
    2f14:	b59ff0ef          	jal	2a6c <pmu_event_select_overlap>
    2f18:	87aa                	mv	a5,a0
    2f1a:	fef42423          	sw	a5,-24(s0)
    2f1e:	a015                	j	2f42 <pmu_add_hw_event_map+0x11e>
    2f20:	00080797          	auipc	a5,0x80
    2f24:	32078793          	addi	a5,a5,800 # 83240 <hw_event_map>
    2f28:	6398                	ld	a4,0(a5)
    2f2a:	fec42783          	lw	a5,-20(s0)
    2f2e:	0796                	slli	a5,a5,0x5
    2f30:	97ba                	add	a5,a5,a4
    2f32:	fe043583          	ld	a1,-32(s0)
    2f36:	853e                	mv	a0,a5
    2f38:	ad9ff0ef          	jal	2a10 <pmu_event_range_overlap>
    2f3c:	87aa                	mv	a5,a0
    2f3e:	fef42423          	sw	a5,-24(s0)
    2f42:	fe842783          	lw	a5,-24(s0)
    2f46:	2781                	sext.w	a5,a5
    2f48:	e3bd                	bnez	a5,2fae <pmu_add_hw_event_map+0x18a>
    2f4a:	fec42783          	lw	a5,-20(s0)
    2f4e:	2785                	addiw	a5,a5,1
    2f50:	fef42623          	sw	a5,-20(s0)
    2f54:	fec42703          	lw	a4,-20(s0)
    2f58:	00080797          	auipc	a5,0x80
    2f5c:	2f078793          	addi	a5,a5,752 # 83248 <num_hw_events>
    2f60:	439c                	lw	a5,0(a5)
    2f62:	f8f763e3          	bltu	a4,a5,2ee8 <pmu_add_hw_event_map+0xc4>
    2f66:	fe043783          	ld	a5,-32(s0)
    2f6a:	fb043703          	ld	a4,-80(s0)
    2f6e:	ef98                	sd	a4,24(a5)
    2f70:	fc442783          	lw	a5,-60(s0)
    2f74:	873e                	mv	a4,a5
    2f76:	fd442783          	lw	a5,-44(s0)
    2f7a:	8ff9                	and	a5,a5,a4
    2f7c:	0007871b          	sext.w	a4,a5
    2f80:	fe043783          	ld	a5,-32(s0)
    2f84:	c398                	sw	a4,0(a5)
    2f86:	fe043783          	ld	a5,-32(s0)
    2f8a:	fb843703          	ld	a4,-72(s0)
    2f8e:	eb98                	sd	a4,16(a5)
    2f90:	00080797          	auipc	a5,0x80
    2f94:	2b878793          	addi	a5,a5,696 # 83248 <num_hw_events>
    2f98:	439c                	lw	a5,0(a5)
    2f9a:	2785                	addiw	a5,a5,1
    2f9c:	0007871b          	sext.w	a4,a5
    2fa0:	00080797          	auipc	a5,0x80
    2fa4:	2a878793          	addi	a5,a5,680 # 83248 <num_hw_events>
    2fa8:	c398                	sw	a4,0(a5)
    2faa:	4781                	li	a5,0
    2fac:	a819                	j	2fc2 <pmu_add_hw_event_map+0x19e>
    2fae:	0001                	nop
    2fb0:	fe043783          	ld	a5,-32(s0)
    2fb4:	0007a223          	sw	zero,4(a5)
    2fb8:	fe043783          	ld	a5,-32(s0)
    2fbc:	0007a423          	sw	zero,8(a5)
    2fc0:	57f5                	li	a5,-3
    2fc2:	853e                	mv	a0,a5
    2fc4:	60a6                	ld	ra,72(sp)
    2fc6:	6406                	ld	s0,64(sp)
    2fc8:	6161                	addi	sp,sp,80
    2fca:	8082                	ret

0000000000002fcc <sbi_pmu_add_hw_event_counter_map>:
    2fcc:	1101                	addi	sp,sp,-32
    2fce:	ec06                	sd	ra,24(sp)
    2fd0:	e822                	sd	s0,16(sp)
    2fd2:	1000                	addi	s0,sp,32
    2fd4:	87aa                	mv	a5,a0
    2fd6:	86ae                	mv	a3,a1
    2fd8:	8732                	mv	a4,a2
    2fda:	fef42623          	sw	a5,-20(s0)
    2fde:	87b6                	mv	a5,a3
    2fe0:	fef42423          	sw	a5,-24(s0)
    2fe4:	87ba                	mv	a5,a4
    2fe6:	fef42223          	sw	a5,-28(s0)
    2fea:	fec42783          	lw	a5,-20(s0)
    2fee:	873e                	mv	a4,a5
    2ff0:	fe842783          	lw	a5,-24(s0)
    2ff4:	2701                	sext.w	a4,a4
    2ff6:	2781                	sext.w	a5,a5
    2ff8:	02e7e263          	bltu	a5,a4,301c <sbi_pmu_add_hw_event_counter_map+0x50>
    2ffc:	fec42783          	lw	a5,-20(s0)
    3000:	0007871b          	sext.w	a4,a5
    3004:	000207b7          	lui	a5,0x20
    3008:	00f70a63          	beq	a4,a5,301c <sbi_pmu_add_hw_event_counter_map+0x50>
    300c:	fe842783          	lw	a5,-24(s0)
    3010:	0007871b          	sext.w	a4,a5
    3014:	000207b7          	lui	a5,0x20
    3018:	00f71463          	bne	a4,a5,3020 <sbi_pmu_add_hw_event_counter_map+0x54>
    301c:	57f5                	li	a5,-3
    301e:	a829                	j	3038 <sbi_pmu_add_hw_event_counter_map+0x6c>
    3020:	fe442603          	lw	a2,-28(s0)
    3024:	fe842583          	lw	a1,-24(s0)
    3028:	fec42783          	lw	a5,-20(s0)
    302c:	4701                	li	a4,0
    302e:	4681                	li	a3,0
    3030:	853e                	mv	a0,a5
    3032:	df3ff0ef          	jal	2e24 <pmu_add_hw_event_map>
    3036:	87aa                	mv	a5,a0
    3038:	853e                	mv	a0,a5
    303a:	60e2                	ld	ra,24(sp)
    303c:	6442                	ld	s0,16(sp)
    303e:	6105                	addi	sp,sp,32
    3040:	8082                	ret

0000000000003042 <sbi_pmu_add_raw_event_counter_map>:
    3042:	7179                	addi	sp,sp,-48
    3044:	f406                	sd	ra,40(sp)
    3046:	f022                	sd	s0,32(sp)
    3048:	1800                	addi	s0,sp,48
    304a:	fea43423          	sd	a0,-24(s0)
    304e:	feb43023          	sd	a1,-32(s0)
    3052:	87b2                	mv	a5,a2
    3054:	fcf42e23          	sw	a5,-36(s0)
    3058:	fdc42783          	lw	a5,-36(s0)
    305c:	fe043703          	ld	a4,-32(s0)
    3060:	fe843683          	ld	a3,-24(s0)
    3064:	863e                	mv	a2,a5
    3066:	000205b7          	lui	a1,0x20
    306a:	00020537          	lui	a0,0x20
    306e:	db7ff0ef          	jal	2e24 <pmu_add_hw_event_map>
    3072:	87aa                	mv	a5,a0
    3074:	853e                	mv	a0,a5
    3076:	70a2                	ld	ra,40(sp)
    3078:	7402                	ld	s0,32(sp)
    307a:	6145                	addi	sp,sp,48
    307c:	8082                	ret

000000000000307e <sbi_pmu_ovf_irq>:
    307e:	1101                	addi	sp,sp,-32
    3080:	ec06                	sd	ra,24(sp)
    3082:	e822                	sd	s0,16(sp)
    3084:	1000                	addi	s0,sp,32
    3086:	6789                	lui	a5,0x2
    3088:	fef43423          	sd	a5,-24(s0)
    308c:	fe843783          	ld	a5,-24(s0)
    3090:	3047b073          	csrc	mie,a5
    3094:	6541                	lui	a0,0x10
    3096:	5ae040ef          	jal	7644 <sbi_sse_inject_event>
    309a:	0001                	nop
    309c:	60e2                	ld	ra,24(sp)
    309e:	6442                	ld	s0,16(sp)
    30a0:	6105                	addi	sp,sp,32
    30a2:	8082                	ret

00000000000030a4 <pmu_ctr_enable_irq_hw>:
    30a4:	715d                	addi	sp,sp,-80
    30a6:	e486                	sd	ra,72(sp)
    30a8:	e0a2                	sd	s0,64(sp)
    30aa:	fc26                	sd	s1,56(sp)
    30ac:	0880                	addi	s0,sp,80
    30ae:	87aa                	mv	a5,a0
    30b0:	faf42e23          	sw	a5,-68(s0)
    30b4:	fbc42783          	lw	a5,-68(s0)
    30b8:	0007871b          	sext.w	a4,a5
    30bc:	4789                	li	a5,2
    30be:	00e7d963          	bge	a5,a4,30d0 <pmu_ctr_enable_irq_hw+0x2c>
    30c2:	fbc42783          	lw	a5,-68(s0)
    30c6:	0007871b          	sext.w	a4,a5
    30ca:	47fd                	li	a5,31
    30cc:	00e7d463          	bge	a5,a4,30d4 <pmu_ctr_enable_irq_hw+0x30>
    30d0:	57fd                	li	a5,-1
    30d2:	a8b9                	j	3130 <pmu_ctr_enable_irq_hw+0x8c>
    30d4:	fbc42783          	lw	a5,-68(s0)
    30d8:	3207879b          	addiw	a5,a5,800 # 2320 <sbi_ipi_exit+0x12>
    30dc:	2781                	sext.w	a5,a5
    30de:	fcf43c23          	sd	a5,-40(s0)
    30e2:	57fd                	li	a5,-1
    30e4:	8385                	srli	a5,a5,0x1
    30e6:	fcf43823          	sd	a5,-48(s0)
    30ea:	fd843783          	ld	a5,-40(s0)
    30ee:	2781                	sext.w	a5,a5
    30f0:	853e                	mv	a0,a5
    30f2:	1850a0ef          	jal	da76 <csr_read_num>
    30f6:	fca43423          	sd	a0,-56(s0)
    30fa:	344027f3          	csrr	a5,mip
    30fe:	84be                	mv	s1,a5
    3100:	87a6                	mv	a5,s1
    3102:	fcf43023          	sd	a5,-64(s0)
    3106:	fc043703          	ld	a4,-64(s0)
    310a:	6789                	lui	a5,0x2
    310c:	8ff9                	and	a5,a5,a4
    310e:	e385                	bnez	a5,312e <pmu_ctr_enable_irq_hw+0x8a>
    3110:	fc843703          	ld	a4,-56(s0)
    3114:	fd043783          	ld	a5,-48(s0)
    3118:	8ff9                	and	a5,a5,a4
    311a:	fcf43423          	sd	a5,-56(s0)
    311e:	fd843783          	ld	a5,-40(s0)
    3122:	2781                	sext.w	a5,a5
    3124:	fc843583          	ld	a1,-56(s0)
    3128:	853e                	mv	a0,a5
    312a:	2200b0ef          	jal	e34a <csr_write_num>
    312e:	4781                	li	a5,0
    3130:	853e                	mv	a0,a5
    3132:	60a6                	ld	ra,72(sp)
    3134:	6406                	ld	s0,64(sp)
    3136:	74e2                	ld	s1,56(sp)
    3138:	6161                	addi	sp,sp,80
    313a:	8082                	ret

000000000000313c <pmu_ctr_write_hw>:
    313c:	1101                	addi	sp,sp,-32
    313e:	ec06                	sd	ra,24(sp)
    3140:	e822                	sd	s0,16(sp)
    3142:	1000                	addi	s0,sp,32
    3144:	87aa                	mv	a5,a0
    3146:	feb43023          	sd	a1,-32(s0)
    314a:	fef42623          	sw	a5,-20(s0)
    314e:	fec42783          	lw	a5,-20(s0)
    3152:	873e                	mv	a4,a5
    3154:	6785                	lui	a5,0x1
    3156:	b007879b          	addiw	a5,a5,-1280 # b00 <sbi_boot_print_general+0x144>
    315a:	9fb9                	addw	a5,a5,a4
    315c:	2781                	sext.w	a5,a5
    315e:	2781                	sext.w	a5,a5
    3160:	fe043583          	ld	a1,-32(s0)
    3164:	853e                	mv	a0,a5
    3166:	1e40b0ef          	jal	e34a <csr_write_num>
    316a:	0001                	nop
    316c:	60e2                	ld	ra,24(sp)
    316e:	6442                	ld	s0,16(sp)
    3170:	6105                	addi	sp,sp,32
    3172:	8082                	ret

0000000000003174 <pmu_ctr_start_hw>:
    3174:	715d                	addi	sp,sp,-80
    3176:	e486                	sd	ra,72(sp)
    3178:	e0a2                	sd	s0,64(sp)
    317a:	fc26                	sd	s1,56(sp)
    317c:	0880                	addi	s0,sp,80
    317e:	87aa                	mv	a5,a0
    3180:	fab43823          	sd	a1,-80(s0)
    3184:	8732                	mv	a4,a2
    3186:	faf42e23          	sw	a5,-68(s0)
    318a:	87ba                	mv	a5,a4
    318c:	faf42c23          	sw	a5,-72(s0)
    3190:	340027f3          	csrr	a5,mscratch
    3194:	84be                	mv	s1,a5
    3196:	87a6                	mv	a5,s1
    3198:	fcf43c23          	sd	a5,-40(s0)
    319c:	00080797          	auipc	a5,0x80
    31a0:	0b078793          	addi	a5,a5,176 # 8324c <num_hw_ctrs>
    31a4:	4398                	lw	a4,0(a5)
    31a6:	fbc42783          	lw	a5,-68(s0)
    31aa:	2781                	sext.w	a5,a5
    31ac:	00e7f963          	bgeu	a5,a4,31be <pmu_ctr_start_hw+0x4a>
    31b0:	fbc42783          	lw	a5,-68(s0)
    31b4:	0007871b          	sext.w	a4,a5
    31b8:	4785                	li	a5,1
    31ba:	00f71463          	bne	a4,a5,31c2 <pmu_ctr_start_hw+0x4e>
    31be:	57f5                	li	a5,-3
    31c0:	a8c1                	j	3290 <pmu_ctr_start_hw+0x11c>
    31c2:	fd843503          	ld	a0,-40(s0)
    31c6:	65b130ef          	jal	17020 <sbi_hart_priv_version>
    31ca:	87aa                	mv	a5,a0
    31cc:	873e                	mv	a4,a5
    31ce:	4785                	li	a5,1
    31d0:	00e7cf63          	blt	a5,a4,31ee <pmu_ctr_start_hw+0x7a>
    31d4:	fb842783          	lw	a5,-72(s0)
    31d8:	2781                	sext.w	a5,a5
    31da:	cb81                	beqz	a5,31ea <pmu_ctr_start_hw+0x76>
    31dc:	fbc42783          	lw	a5,-68(s0)
    31e0:	fb043583          	ld	a1,-80(s0)
    31e4:	853e                	mv	a0,a5
    31e6:	f57ff0ef          	jal	313c <pmu_ctr_write_hw>
    31ea:	4781                	li	a5,0
    31ec:	a055                	j	3290 <pmu_ctr_start_hw+0x11c>
    31ee:	320027f3          	csrr	a5,mcountinhibit
    31f2:	80be                	mv	ra,a5
    31f4:	8786                	mv	a5,ra
    31f6:	fcf43423          	sd	a5,-56(s0)
    31fa:	fbc42783          	lw	a5,-68(s0)
    31fe:	fc840713          	addi	a4,s0,-56
    3202:	85ba                	mv	a1,a4
    3204:	853e                	mv	a0,a5
    3206:	ec6ff0ef          	jal	28cc <__test_bit>
    320a:	87aa                	mv	a5,a0
    320c:	e399                	bnez	a5,3212 <pmu_ctr_start_hw+0x9e>
    320e:	57e5                	li	a5,-7
    3210:	a041                	j	3290 <pmu_ctr_start_hw+0x11c>
    3212:	fbc42783          	lw	a5,-68(s0)
    3216:	fc840713          	addi	a4,s0,-56
    321a:	85ba                	mv	a1,a4
    321c:	853e                	mv	a0,a5
    321e:	e4aff0ef          	jal	2868 <__clear_bit>
    3222:	458d                	li	a1,3
    3224:	fd843503          	ld	a0,-40(s0)
    3228:	771130ef          	jal	17198 <sbi_hart_has_extension>
    322c:	87aa                	mv	a5,a0
    322e:	c791                	beqz	a5,323a <pmu_ctr_start_hw+0xc6>
    3230:	fbc42783          	lw	a5,-68(s0)
    3234:	853e                	mv	a0,a5
    3236:	e6fff0ef          	jal	30a4 <pmu_ctr_enable_irq_hw>
    323a:	fb842783          	lw	a5,-72(s0)
    323e:	2781                	sext.w	a5,a5
    3240:	cb81                	beqz	a5,3250 <pmu_ctr_start_hw+0xdc>
    3242:	fbc42783          	lw	a5,-68(s0)
    3246:	fb043583          	ld	a1,-80(s0)
    324a:	853e                	mv	a0,a5
    324c:	ef1ff0ef          	jal	313c <pmu_ctr_write_hw>
    3250:	00080797          	auipc	a5,0x80
    3254:	fe878793          	addi	a5,a5,-24 # 83238 <pmu_dev>
    3258:	639c                	ld	a5,0(a5)
    325a:	c395                	beqz	a5,327e <pmu_ctr_start_hw+0x10a>
    325c:	00080797          	auipc	a5,0x80
    3260:	fdc78793          	addi	a5,a5,-36 # 83238 <pmu_dev>
    3264:	639c                	ld	a5,0(a5)
    3266:	6fbc                	ld	a5,88(a5)
    3268:	cb99                	beqz	a5,327e <pmu_ctr_start_hw+0x10a>
    326a:	00080797          	auipc	a5,0x80
    326e:	fce78793          	addi	a5,a5,-50 # 83238 <pmu_dev>
    3272:	639c                	ld	a5,0(a5)
    3274:	6fbc                	ld	a5,88(a5)
    3276:	fbc42703          	lw	a4,-68(s0)
    327a:	853a                	mv	a0,a4
    327c:	9782                	jalr	a5
    327e:	fc843783          	ld	a5,-56(s0)
    3282:	fcf43823          	sd	a5,-48(s0)
    3286:	fd043783          	ld	a5,-48(s0)
    328a:	32079073          	csrw	mcountinhibit,a5
    328e:	4781                	li	a5,0
    3290:	853e                	mv	a0,a5
    3292:	60a6                	ld	ra,72(sp)
    3294:	6406                	ld	s0,64(sp)
    3296:	74e2                	ld	s1,56(sp)
    3298:	6161                	addi	sp,sp,80
    329a:	8082                	ret

000000000000329c <sbi_pmu_irq_bit>:
    329c:	1101                	addi	sp,sp,-32
    329e:	ec06                	sd	ra,24(sp)
    32a0:	e822                	sd	s0,16(sp)
    32a2:	1000                	addi	s0,sp,32
    32a4:	340027f3          	csrr	a5,mscratch
    32a8:	80be                	mv	ra,a5
    32aa:	8786                	mv	a5,ra
    32ac:	fef43423          	sd	a5,-24(s0)
    32b0:	458d                	li	a1,3
    32b2:	fe843503          	ld	a0,-24(s0)
    32b6:	6e3130ef          	jal	17198 <sbi_hart_has_extension>
    32ba:	87aa                	mv	a5,a0
    32bc:	c399                	beqz	a5,32c2 <sbi_pmu_irq_bit+0x26>
    32be:	6789                	lui	a5,0x2
    32c0:	a805                	j	32f0 <sbi_pmu_irq_bit+0x54>
    32c2:	00080797          	auipc	a5,0x80
    32c6:	f7678793          	addi	a5,a5,-138 # 83238 <pmu_dev>
    32ca:	639c                	ld	a5,0(a5)
    32cc:	c38d                	beqz	a5,32ee <sbi_pmu_irq_bit+0x52>
    32ce:	00080797          	auipc	a5,0x80
    32d2:	f6a78793          	addi	a5,a5,-150 # 83238 <pmu_dev>
    32d6:	639c                	ld	a5,0(a5)
    32d8:	77bc                	ld	a5,104(a5)
    32da:	cb91                	beqz	a5,32ee <sbi_pmu_irq_bit+0x52>
    32dc:	00080797          	auipc	a5,0x80
    32e0:	f5c78793          	addi	a5,a5,-164 # 83238 <pmu_dev>
    32e4:	639c                	ld	a5,0(a5)
    32e6:	77bc                	ld	a5,104(a5)
    32e8:	9782                	jalr	a5
    32ea:	87aa                	mv	a5,a0
    32ec:	a011                	j	32f0 <sbi_pmu_irq_bit+0x54>
    32ee:	4781                	li	a5,0
    32f0:	853e                	mv	a0,a5
    32f2:	60e2                	ld	ra,24(sp)
    32f4:	6442                	ld	s0,16(sp)
    32f6:	6105                	addi	sp,sp,32
    32f8:	8082                	ret

00000000000032fa <pmu_ctr_start_fw>:
    32fa:	7139                	addi	sp,sp,-64
    32fc:	fc06                	sd	ra,56(sp)
    32fe:	f822                	sd	s0,48(sp)
    3300:	0080                	addi	s0,sp,64
    3302:	fea43423          	sd	a0,-24(s0)
    3306:	fcd43c23          	sd	a3,-40(s0)
    330a:	fce43823          	sd	a4,-48(s0)
    330e:	873e                	mv	a4,a5
    3310:	87ae                	mv	a5,a1
    3312:	fef42223          	sw	a5,-28(s0)
    3316:	87b2                	mv	a5,a2
    3318:	fef42023          	sw	a5,-32(s0)
    331c:	87ba                	mv	a5,a4
    331e:	fcf42623          	sw	a5,-52(s0)
    3322:	fe042783          	lw	a5,-32(s0)
    3326:	0007871b          	sext.w	a4,a5
    332a:	47d5                	li	a5,21
    332c:	00e7fa63          	bgeu	a5,a4,3340 <pmu_ctr_start_fw+0x46>
    3330:	fe042783          	lw	a5,-32(s0)
    3334:	0007871b          	sext.w	a4,a5
    3338:	67c1                	lui	a5,0x10
    333a:	17f9                	addi	a5,a5,-2 # fffe <sbi_ecall_time_register_extensions+0x16>
    333c:	00e7f963          	bgeu	a5,a4,334e <pmu_ctr_start_fw+0x54>
    3340:	fe042783          	lw	a5,-32(s0)
    3344:	0007871b          	sext.w	a4,a5
    3348:	67c1                	lui	a5,0x10
    334a:	00f76463          	bltu	a4,a5,3352 <pmu_ctr_start_fw+0x58>
    334e:	57f5                	li	a5,-3
    3350:	a219                	j	3456 <pmu_ctr_start_fw+0x15c>
    3352:	fe042783          	lw	a5,-32(s0)
    3356:	0007871b          	sext.w	a4,a5
    335a:	67c1                	lui	a5,0x10
    335c:	17fd                	addi	a5,a5,-1 # ffff <sbi_ecall_time_register_extensions+0x17>
    335e:	08f71e63          	bne	a4,a5,33fa <pmu_ctr_start_fw+0x100>
    3362:	00080797          	auipc	a5,0x80
    3366:	ed678793          	addi	a5,a5,-298 # 83238 <pmu_dev>
    336a:	639c                	ld	a5,0(a5)
    336c:	cf99                	beqz	a5,338a <pmu_ctr_start_fw+0x90>
    336e:	00080797          	auipc	a5,0x80
    3372:	eca78793          	addi	a5,a5,-310 # 83238 <pmu_dev>
    3376:	639c                	ld	a5,0(a5)
    3378:	63bc                	ld	a5,64(a5)
    337a:	cb81                	beqz	a5,338a <pmu_ctr_start_fw+0x90>
    337c:	00080797          	auipc	a5,0x80
    3380:	ebc78793          	addi	a5,a5,-324 # 83238 <pmu_dev>
    3384:	639c                	ld	a5,0(a5)
    3386:	67bc                	ld	a5,72(a5)
    3388:	e399                	bnez	a5,338e <pmu_ctr_start_fw+0x94>
    338a:	57f5                	li	a5,-3
    338c:	a0e9                	j	3456 <pmu_ctr_start_fw+0x15c>
    338e:	fcc42783          	lw	a5,-52(s0)
    3392:	2781                	sext.w	a5,a5
    3394:	cb8d                	beqz	a5,33c6 <pmu_ctr_start_fw+0xcc>
    3396:	00080797          	auipc	a5,0x80
    339a:	ea278793          	addi	a5,a5,-350 # 83238 <pmu_dev>
    339e:	639c                	ld	a5,0(a5)
    33a0:	63bc                	ld	a5,64(a5)
    33a2:	fe843703          	ld	a4,-24(s0)
    33a6:	4314                	lw	a3,0(a4)
    33a8:	00080717          	auipc	a4,0x80
    33ac:	ea470713          	addi	a4,a4,-348 # 8324c <num_hw_ctrs>
    33b0:	4318                	lw	a4,0(a4)
    33b2:	fe442603          	lw	a2,-28(s0)
    33b6:	40e6073b          	subw	a4,a2,a4
    33ba:	2701                	sext.w	a4,a4
    33bc:	fd043603          	ld	a2,-48(s0)
    33c0:	85ba                	mv	a1,a4
    33c2:	8536                	mv	a0,a3
    33c4:	9782                	jalr	a5
    33c6:	00080797          	auipc	a5,0x80
    33ca:	e7278793          	addi	a5,a5,-398 # 83238 <pmu_dev>
    33ce:	639c                	ld	a5,0(a5)
    33d0:	67bc                	ld	a5,72(a5)
    33d2:	fe843703          	ld	a4,-24(s0)
    33d6:	4314                	lw	a3,0(a4)
    33d8:	00080717          	auipc	a4,0x80
    33dc:	e7470713          	addi	a4,a4,-396 # 8324c <num_hw_ctrs>
    33e0:	4318                	lw	a4,0(a4)
    33e2:	fe442603          	lw	a2,-28(s0)
    33e6:	40e6073b          	subw	a4,a2,a4
    33ea:	2701                	sext.w	a4,a4
    33ec:	fd843603          	ld	a2,-40(s0)
    33f0:	85ba                	mv	a1,a4
    33f2:	8536                	mv	a0,a3
    33f4:	9782                	jalr	a5
    33f6:	87aa                	mv	a5,a0
    33f8:	a8b9                	j	3456 <pmu_ctr_start_fw+0x15c>
    33fa:	fcc42783          	lw	a5,-52(s0)
    33fe:	2781                	sext.w	a5,a5
    3400:	c78d                	beqz	a5,342a <pmu_ctr_start_fw+0x130>
    3402:	00080797          	auipc	a5,0x80
    3406:	e4a78793          	addi	a5,a5,-438 # 8324c <num_hw_ctrs>
    340a:	439c                	lw	a5,0(a5)
    340c:	fe442703          	lw	a4,-28(s0)
    3410:	40f707bb          	subw	a5,a4,a5
    3414:	2781                	sext.w	a5,a5
    3416:	fe843703          	ld	a4,-24(s0)
    341a:	1782                	slli	a5,a5,0x20
    341c:	9381                	srli	a5,a5,0x20
    341e:	07e9                	addi	a5,a5,26
    3420:	078e                	slli	a5,a5,0x3
    3422:	97ba                	add	a5,a5,a4
    3424:	fd043703          	ld	a4,-48(s0)
    3428:	e798                	sd	a4,8(a5)
    342a:	fe843783          	ld	a5,-24(s0)
    342e:	67f8                	ld	a4,200(a5)
    3430:	00080797          	auipc	a5,0x80
    3434:	e1c78793          	addi	a5,a5,-484 # 8324c <num_hw_ctrs>
    3438:	439c                	lw	a5,0(a5)
    343a:	fe442683          	lw	a3,-28(s0)
    343e:	40f687bb          	subw	a5,a3,a5
    3442:	2781                	sext.w	a5,a5
    3444:	86be                	mv	a3,a5
    3446:	4785                	li	a5,1
    3448:	00d797b3          	sll	a5,a5,a3
    344c:	8f5d                	or	a4,a4,a5
    344e:	fe843783          	ld	a5,-24(s0)
    3452:	e7f8                	sd	a4,200(a5)
    3454:	4781                	li	a5,0
    3456:	853e                	mv	a0,a5
    3458:	70e2                	ld	ra,56(sp)
    345a:	7442                	ld	s0,48(sp)
    345c:	6121                	addi	sp,sp,64
    345e:	8082                	ret

0000000000003460 <sbi_pmu_ctr_start>:
    3460:	7159                	addi	sp,sp,-112
    3462:	f486                	sd	ra,104(sp)
    3464:	f0a2                	sd	s0,96(sp)
    3466:	eca6                	sd	s1,88(sp)
    3468:	1880                	addi	s0,sp,112
    346a:	faa43423          	sd	a0,-88(s0)
    346e:	fab43023          	sd	a1,-96(s0)
    3472:	f8c43c23          	sd	a2,-104(s0)
    3476:	f8d43823          	sd	a3,-112(s0)
    347a:	00080797          	auipc	a5,0x80
    347e:	db678793          	addi	a5,a5,-586 # 83230 <phs_ptr_offset>
    3482:	639c                	ld	a5,0(a5)
    3484:	cf89                	beqz	a5,349e <sbi_pmu_ctr_start+0x3e>
    3486:	340027f3          	csrr	a5,mscratch
    348a:	84be                	mv	s1,a5
    348c:	8726                	mv	a4,s1
    348e:	00080797          	auipc	a5,0x80
    3492:	da278793          	addi	a5,a5,-606 # 83230 <phs_ptr_offset>
    3496:	639c                	ld	a5,0(a5)
    3498:	97ba                	add	a5,a5,a4
    349a:	639c                	ld	a5,0(a5)
    349c:	a011                	j	34a0 <sbi_pmu_ctr_start+0x40>
    349e:	4781                	li	a5,0
    34a0:	fcf43423          	sd	a5,-56(s0)
    34a4:	fc843783          	ld	a5,-56(s0)
    34a8:	0017b793          	seqz	a5,a5
    34ac:	0ff7f793          	zext.b	a5,a5
    34b0:	c399                	beqz	a5,34b6 <sbi_pmu_ctr_start+0x56>
    34b2:	57f5                	li	a5,-3
    34b4:	aab1                	j	3610 <sbi_pmu_ctr_start+0x1b0>
    34b6:	57f5                	li	a5,-3
    34b8:	fcf42e23          	sw	a5,-36(s0)
    34bc:	fc042c23          	sw	zero,-40(s0)
    34c0:	fa043783          	ld	a5,-96(s0)
    34c4:	853e                	mv	a0,a5
    34c6:	a72ff0ef          	jal	2738 <sbi_fls>
    34ca:	872a                	mv	a4,a0
    34cc:	fa843783          	ld	a5,-88(s0)
    34d0:	973e                	add	a4,a4,a5
    34d2:	00080797          	auipc	a5,0x80
    34d6:	d7e78793          	addi	a5,a5,-642 # 83250 <total_ctrs>
    34da:	439c                	lw	a5,0(a5)
    34dc:	1782                	slli	a5,a5,0x20
    34de:	9381                	srli	a5,a5,0x20
    34e0:	00f76563          	bltu	a4,a5,34ea <sbi_pmu_ctr_start+0x8a>
    34e4:	fdc42783          	lw	a5,-36(s0)
    34e8:	a225                	j	3610 <sbi_pmu_ctr_start+0x1b0>
    34ea:	f9843783          	ld	a5,-104(s0)
    34ee:	8b89                	andi	a5,a5,2
    34f0:	c399                	beqz	a5,34f6 <sbi_pmu_ctr_start+0x96>
    34f2:	57dd                	li	a5,-9
    34f4:	aa31                	j	3610 <sbi_pmu_ctr_start+0x1b0>
    34f6:	f9843783          	ld	a5,-104(s0)
    34fa:	8b85                	andi	a5,a5,1
    34fc:	c781                	beqz	a5,3504 <sbi_pmu_ctr_start+0xa4>
    34fe:	4785                	li	a5,1
    3500:	fcf42c23          	sw	a5,-40(s0)
    3504:	fa040793          	addi	a5,s0,-96
    3508:	04000593          	li	a1,64
    350c:	853e                	mv	a0,a5
    350e:	5b00e0ef          	jal	11abe <find_first_bit>
    3512:	87aa                	mv	a5,a0
    3514:	fcf42a23          	sw	a5,-44(s0)
    3518:	a0d5                	j	35fc <sbi_pmu_ctr_start+0x19c>
    351a:	fa843783          	ld	a5,-88(s0)
    351e:	0007871b          	sext.w	a4,a5
    3522:	fd442783          	lw	a5,-44(s0)
    3526:	9fb9                	addw	a5,a5,a4
    3528:	2781                	sext.w	a5,a5
    352a:	fcf42223          	sw	a5,-60(s0)
    352e:	fc442783          	lw	a5,-60(s0)
    3532:	fb440713          	addi	a4,s0,-76
    3536:	863a                	mv	a2,a4
    3538:	85be                	mv	a1,a5
    353a:	fc843503          	ld	a0,-56(s0)
    353e:	f10ff0ef          	jal	2c4e <pmu_ctr_validate>
    3542:	87aa                	mv	a5,a0
    3544:	fcf42023          	sw	a5,-64(s0)
    3548:	fc042783          	lw	a5,-64(s0)
    354c:	2781                	sext.w	a5,a5
    354e:	0807c663          	bltz	a5,35da <sbi_pmu_ctr_start+0x17a>
    3552:	fc042783          	lw	a5,-64(s0)
    3556:	0007871b          	sext.w	a4,a5
    355a:	47bd                	li	a5,15
    355c:	06f71163          	bne	a4,a5,35be <sbi_pmu_ctr_start+0x15e>
    3560:	fb442783          	lw	a5,-76(s0)
    3564:	873e                	mv	a4,a5
    3566:	67c1                	lui	a5,0x10
    3568:	17fd                	addi	a5,a5,-1 # ffff <sbi_ecall_time_register_extensions+0x17>
    356a:	02f71563          	bne	a4,a5,3594 <sbi_pmu_ctr_start+0x134>
    356e:	fc442703          	lw	a4,-60(s0)
    3572:	00080797          	auipc	a5,0x80
    3576:	cda78793          	addi	a5,a5,-806 # 8324c <num_hw_ctrs>
    357a:	439c                	lw	a5,0(a5)
    357c:	40f707bb          	subw	a5,a4,a5
    3580:	2781                	sext.w	a5,a5
    3582:	fc843703          	ld	a4,-56(s0)
    3586:	1782                	slli	a5,a5,0x20
    3588:	9381                	srli	a5,a5,0x20
    358a:	07e9                	addi	a5,a5,26
    358c:	078e                	slli	a5,a5,0x3
    358e:	97ba                	add	a5,a5,a4
    3590:	679c                	ld	a5,8(a5)
    3592:	a011                	j	3596 <sbi_pmu_ctr_start+0x136>
    3594:	4781                	li	a5,0
    3596:	faf43c23          	sd	a5,-72(s0)
    359a:	fc442583          	lw	a1,-60(s0)
    359e:	fb442603          	lw	a2,-76(s0)
    35a2:	fd842783          	lw	a5,-40(s0)
    35a6:	f9043703          	ld	a4,-112(s0)
    35aa:	fb843683          	ld	a3,-72(s0)
    35ae:	fc843503          	ld	a0,-56(s0)
    35b2:	d49ff0ef          	jal	32fa <pmu_ctr_start_fw>
    35b6:	87aa                	mv	a5,a0
    35b8:	fcf42e23          	sw	a5,-36(s0)
    35bc:	a005                	j	35dc <sbi_pmu_ctr_start+0x17c>
    35be:	fc442783          	lw	a5,-60(s0)
    35c2:	fd842703          	lw	a4,-40(s0)
    35c6:	863a                	mv	a2,a4
    35c8:	f9043583          	ld	a1,-112(s0)
    35cc:	853e                	mv	a0,a5
    35ce:	ba7ff0ef          	jal	3174 <pmu_ctr_start_hw>
    35d2:	87aa                	mv	a5,a0
    35d4:	fcf42e23          	sw	a5,-36(s0)
    35d8:	a011                	j	35dc <sbi_pmu_ctr_start+0x17c>
    35da:	0001                	nop
    35dc:	fd442783          	lw	a5,-44(s0)
    35e0:	2785                	addiw	a5,a5,1
    35e2:	2781                	sext.w	a5,a5
    35e4:	873e                	mv	a4,a5
    35e6:	fa040793          	addi	a5,s0,-96
    35ea:	863a                	mv	a2,a4
    35ec:	04000593          	li	a1,64
    35f0:	853e                	mv	a0,a5
    35f2:	6fe0e0ef          	jal	11cf0 <find_next_bit>
    35f6:	87aa                	mv	a5,a0
    35f8:	fcf42a23          	sw	a5,-44(s0)
    35fc:	fd442783          	lw	a5,-44(s0)
    3600:	0007871b          	sext.w	a4,a5
    3604:	03f00793          	li	a5,63
    3608:	f0e7d9e3          	bge	a5,a4,351a <sbi_pmu_ctr_start+0xba>
    360c:	fdc42783          	lw	a5,-36(s0)
    3610:	853e                	mv	a0,a5
    3612:	70a6                	ld	ra,104(sp)
    3614:	7406                	ld	s0,96(sp)
    3616:	64e6                	ld	s1,88(sp)
    3618:	6165                	addi	sp,sp,112
    361a:	8082                	ret

000000000000361c <pmu_ctr_stop_hw>:
    361c:	715d                	addi	sp,sp,-80
    361e:	e486                	sd	ra,72(sp)
    3620:	e0a2                	sd	s0,64(sp)
    3622:	fc26                	sd	s1,56(sp)
    3624:	0880                	addi	s0,sp,80
    3626:	87aa                	mv	a5,a0
    3628:	faf42e23          	sw	a5,-68(s0)
    362c:	340027f3          	csrr	a5,mscratch
    3630:	80be                	mv	ra,a5
    3632:	8786                	mv	a5,ra
    3634:	fcf43c23          	sd	a5,-40(s0)
    3638:	fd843503          	ld	a0,-40(s0)
    363c:	1e5130ef          	jal	17020 <sbi_hart_priv_version>
    3640:	87aa                	mv	a5,a0
    3642:	873e                	mv	a4,a5
    3644:	4785                	li	a5,1
    3646:	00e7c463          	blt	a5,a4,364e <pmu_ctr_stop_hw+0x32>
    364a:	4781                	li	a5,0
    364c:	a871                	j	36e8 <pmu_ctr_stop_hw+0xcc>
    364e:	320027f3          	csrr	a5,mcountinhibit
    3652:	84be                	mv	s1,a5
    3654:	87a6                	mv	a5,s1
    3656:	fcf43423          	sd	a5,-56(s0)
    365a:	00080797          	auipc	a5,0x80
    365e:	bf278793          	addi	a5,a5,-1038 # 8324c <num_hw_ctrs>
    3662:	4398                	lw	a4,0(a5)
    3664:	fbc42783          	lw	a5,-68(s0)
    3668:	2781                	sext.w	a5,a5
    366a:	00e7f963          	bgeu	a5,a4,367c <pmu_ctr_stop_hw+0x60>
    366e:	fbc42783          	lw	a5,-68(s0)
    3672:	0007871b          	sext.w	a4,a5
    3676:	4785                	li	a5,1
    3678:	00f71463          	bne	a4,a5,3680 <pmu_ctr_stop_hw+0x64>
    367c:	57f5                	li	a5,-3
    367e:	a0ad                	j	36e8 <pmu_ctr_stop_hw+0xcc>
    3680:	fbc42783          	lw	a5,-68(s0)
    3684:	fc840713          	addi	a4,s0,-56
    3688:	85ba                	mv	a1,a4
    368a:	853e                	mv	a0,a5
    368c:	a40ff0ef          	jal	28cc <__test_bit>
    3690:	87aa                	mv	a5,a0
    3692:	ebb1                	bnez	a5,36e6 <pmu_ctr_stop_hw+0xca>
    3694:	fbc42783          	lw	a5,-68(s0)
    3698:	fc840713          	addi	a4,s0,-56
    369c:	85ba                	mv	a1,a4
    369e:	853e                	mv	a0,a5
    36a0:	968ff0ef          	jal	2808 <__set_bit>
    36a4:	fc843783          	ld	a5,-56(s0)
    36a8:	fcf43823          	sd	a5,-48(s0)
    36ac:	fd043783          	ld	a5,-48(s0)
    36b0:	32079073          	csrw	mcountinhibit,a5
    36b4:	00080797          	auipc	a5,0x80
    36b8:	b8478793          	addi	a5,a5,-1148 # 83238 <pmu_dev>
    36bc:	639c                	ld	a5,0(a5)
    36be:	c395                	beqz	a5,36e2 <pmu_ctr_stop_hw+0xc6>
    36c0:	00080797          	auipc	a5,0x80
    36c4:	b7878793          	addi	a5,a5,-1160 # 83238 <pmu_dev>
    36c8:	639c                	ld	a5,0(a5)
    36ca:	73bc                	ld	a5,96(a5)
    36cc:	cb99                	beqz	a5,36e2 <pmu_ctr_stop_hw+0xc6>
    36ce:	00080797          	auipc	a5,0x80
    36d2:	b6a78793          	addi	a5,a5,-1174 # 83238 <pmu_dev>
    36d6:	639c                	ld	a5,0(a5)
    36d8:	73bc                	ld	a5,96(a5)
    36da:	fbc42703          	lw	a4,-68(s0)
    36de:	853a                	mv	a0,a4
    36e0:	9782                	jalr	a5
    36e2:	4781                	li	a5,0
    36e4:	a011                	j	36e8 <pmu_ctr_stop_hw+0xcc>
    36e6:	57e1                	li	a5,-8
    36e8:	853e                	mv	a0,a5
    36ea:	60a6                	ld	ra,72(sp)
    36ec:	6406                	ld	s0,64(sp)
    36ee:	74e2                	ld	s1,56(sp)
    36f0:	6161                	addi	sp,sp,80
    36f2:	8082                	ret

00000000000036f4 <pmu_ctr_stop_fw>:
    36f4:	7179                	addi	sp,sp,-48
    36f6:	f406                	sd	ra,40(sp)
    36f8:	f022                	sd	s0,32(sp)
    36fa:	1800                	addi	s0,sp,48
    36fc:	fca43c23          	sd	a0,-40(s0)
    3700:	87ae                	mv	a5,a1
    3702:	8732                	mv	a4,a2
    3704:	fcf42a23          	sw	a5,-44(s0)
    3708:	87ba                	mv	a5,a4
    370a:	fcf42823          	sw	a5,-48(s0)
    370e:	fd042783          	lw	a5,-48(s0)
    3712:	0007871b          	sext.w	a4,a5
    3716:	47d5                	li	a5,21
    3718:	00e7fa63          	bgeu	a5,a4,372c <pmu_ctr_stop_fw+0x38>
    371c:	fd042783          	lw	a5,-48(s0)
    3720:	0007871b          	sext.w	a4,a5
    3724:	67c1                	lui	a5,0x10
    3726:	17f9                	addi	a5,a5,-2 # fffe <sbi_ecall_time_register_extensions+0x16>
    3728:	00e7f963          	bgeu	a5,a4,373a <pmu_ctr_stop_fw+0x46>
    372c:	fd042783          	lw	a5,-48(s0)
    3730:	0007871b          	sext.w	a4,a5
    3734:	67c1                	lui	a5,0x10
    3736:	00f76463          	bltu	a4,a5,373e <pmu_ctr_stop_fw+0x4a>
    373a:	57f5                	li	a5,-3
    373c:	a871                	j	37d8 <pmu_ctr_stop_fw+0xe4>
    373e:	fd042783          	lw	a5,-48(s0)
    3742:	0007871b          	sext.w	a4,a5
    3746:	67c1                	lui	a5,0x10
    3748:	17fd                	addi	a5,a5,-1 # ffff <sbi_ecall_time_register_extensions+0x17>
    374a:	04f71f63          	bne	a4,a5,37a8 <pmu_ctr_stop_fw+0xb4>
    374e:	00080797          	auipc	a5,0x80
    3752:	aea78793          	addi	a5,a5,-1302 # 83238 <pmu_dev>
    3756:	639c                	ld	a5,0(a5)
    3758:	cba1                	beqz	a5,37a8 <pmu_ctr_stop_fw+0xb4>
    375a:	00080797          	auipc	a5,0x80
    375e:	ade78793          	addi	a5,a5,-1314 # 83238 <pmu_dev>
    3762:	639c                	ld	a5,0(a5)
    3764:	6bbc                	ld	a5,80(a5)
    3766:	c3a9                	beqz	a5,37a8 <pmu_ctr_stop_fw+0xb4>
    3768:	00080797          	auipc	a5,0x80
    376c:	ad078793          	addi	a5,a5,-1328 # 83238 <pmu_dev>
    3770:	639c                	ld	a5,0(a5)
    3772:	6bbc                	ld	a5,80(a5)
    3774:	fd843703          	ld	a4,-40(s0)
    3778:	4314                	lw	a3,0(a4)
    377a:	00080717          	auipc	a4,0x80
    377e:	ad270713          	addi	a4,a4,-1326 # 8324c <num_hw_ctrs>
    3782:	4318                	lw	a4,0(a4)
    3784:	fd442603          	lw	a2,-44(s0)
    3788:	40e6073b          	subw	a4,a2,a4
    378c:	2701                	sext.w	a4,a4
    378e:	85ba                	mv	a1,a4
    3790:	8536                	mv	a0,a3
    3792:	9782                	jalr	a5
    3794:	87aa                	mv	a5,a0
    3796:	fef42623          	sw	a5,-20(s0)
    379a:	fec42783          	lw	a5,-20(s0)
    379e:	2781                	sext.w	a5,a5
    37a0:	c781                	beqz	a5,37a8 <pmu_ctr_stop_fw+0xb4>
    37a2:	fec42783          	lw	a5,-20(s0)
    37a6:	a80d                	j	37d8 <pmu_ctr_stop_fw+0xe4>
    37a8:	fd843783          	ld	a5,-40(s0)
    37ac:	67f8                	ld	a4,200(a5)
    37ae:	00080797          	auipc	a5,0x80
    37b2:	a9e78793          	addi	a5,a5,-1378 # 8324c <num_hw_ctrs>
    37b6:	439c                	lw	a5,0(a5)
    37b8:	fd442683          	lw	a3,-44(s0)
    37bc:	40f687bb          	subw	a5,a3,a5
    37c0:	2781                	sext.w	a5,a5
    37c2:	86be                	mv	a3,a5
    37c4:	4785                	li	a5,1
    37c6:	00d797b3          	sll	a5,a5,a3
    37ca:	fff7c793          	not	a5,a5
    37ce:	8f7d                	and	a4,a4,a5
    37d0:	fd843783          	ld	a5,-40(s0)
    37d4:	e7f8                	sd	a4,200(a5)
    37d6:	4781                	li	a5,0
    37d8:	853e                	mv	a0,a5
    37da:	70a2                	ld	ra,40(sp)
    37dc:	7402                	ld	s0,32(sp)
    37de:	6145                	addi	sp,sp,48
    37e0:	8082                	ret

00000000000037e2 <pmu_reset_hw_mhpmevent>:
    37e2:	1101                	addi	sp,sp,-32
    37e4:	ec06                	sd	ra,24(sp)
    37e6:	e822                	sd	s0,16(sp)
    37e8:	1000                	addi	s0,sp,32
    37ea:	87aa                	mv	a5,a0
    37ec:	fef42623          	sw	a5,-20(s0)
    37f0:	fec42783          	lw	a5,-20(s0)
    37f4:	0007871b          	sext.w	a4,a5
    37f8:	4789                	li	a5,2
    37fa:	00e7d963          	bge	a5,a4,380c <pmu_reset_hw_mhpmevent+0x2a>
    37fe:	fec42783          	lw	a5,-20(s0)
    3802:	0007871b          	sext.w	a4,a5
    3806:	47fd                	li	a5,31
    3808:	00e7d463          	bge	a5,a4,3810 <pmu_reset_hw_mhpmevent+0x2e>
    380c:	57fd                	li	a5,-1
    380e:	a819                	j	3824 <pmu_reset_hw_mhpmevent+0x42>
    3810:	fec42783          	lw	a5,-20(s0)
    3814:	3207879b          	addiw	a5,a5,800
    3818:	2781                	sext.w	a5,a5
    381a:	4581                	li	a1,0
    381c:	853e                	mv	a0,a5
    381e:	32d0a0ef          	jal	e34a <csr_write_num>
    3822:	4781                	li	a5,0
    3824:	853e                	mv	a0,a5
    3826:	60e2                	ld	ra,24(sp)
    3828:	6442                	ld	s0,16(sp)
    382a:	6105                	addi	sp,sp,32
    382c:	8082                	ret

000000000000382e <sbi_pmu_ctr_stop>:
    382e:	7159                	addi	sp,sp,-112
    3830:	f486                	sd	ra,104(sp)
    3832:	f0a2                	sd	s0,96(sp)
    3834:	eca6                	sd	s1,88(sp)
    3836:	1880                	addi	s0,sp,112
    3838:	faa43423          	sd	a0,-88(s0)
    383c:	fab43023          	sd	a1,-96(s0)
    3840:	f8c43c23          	sd	a2,-104(s0)
    3844:	00080797          	auipc	a5,0x80
    3848:	9ec78793          	addi	a5,a5,-1556 # 83230 <phs_ptr_offset>
    384c:	639c                	ld	a5,0(a5)
    384e:	cf89                	beqz	a5,3868 <sbi_pmu_ctr_stop+0x3a>
    3850:	340027f3          	csrr	a5,mscratch
    3854:	84be                	mv	s1,a5
    3856:	8726                	mv	a4,s1
    3858:	00080797          	auipc	a5,0x80
    385c:	9d878793          	addi	a5,a5,-1576 # 83230 <phs_ptr_offset>
    3860:	639c                	ld	a5,0(a5)
    3862:	97ba                	add	a5,a5,a4
    3864:	639c                	ld	a5,0(a5)
    3866:	a011                	j	386a <sbi_pmu_ctr_stop+0x3c>
    3868:	4781                	li	a5,0
    386a:	fcf43823          	sd	a5,-48(s0)
    386e:	fd043783          	ld	a5,-48(s0)
    3872:	0017b793          	seqz	a5,a5
    3876:	0ff7f793          	zext.b	a5,a5
    387a:	c399                	beqz	a5,3880 <sbi_pmu_ctr_stop+0x52>
    387c:	57f5                	li	a5,-3
    387e:	a291                	j	39c2 <sbi_pmu_ctr_stop+0x194>
    3880:	57f5                	li	a5,-3
    3882:	fcf42e23          	sw	a5,-36(s0)
    3886:	fa043783          	ld	a5,-96(s0)
    388a:	853e                	mv	a0,a5
    388c:	eadfe0ef          	jal	2738 <sbi_fls>
    3890:	872a                	mv	a4,a0
    3892:	fa843783          	ld	a5,-88(s0)
    3896:	973e                	add	a4,a4,a5
    3898:	00080797          	auipc	a5,0x80
    389c:	9b878793          	addi	a5,a5,-1608 # 83250 <total_ctrs>
    38a0:	439c                	lw	a5,0(a5)
    38a2:	1782                	slli	a5,a5,0x20
    38a4:	9381                	srli	a5,a5,0x20
    38a6:	00f76463          	bltu	a4,a5,38ae <sbi_pmu_ctr_stop+0x80>
    38aa:	57f5                	li	a5,-3
    38ac:	aa19                	j	39c2 <sbi_pmu_ctr_stop+0x194>
    38ae:	f9843783          	ld	a5,-104(s0)
    38b2:	8b89                	andi	a5,a5,2
    38b4:	c399                	beqz	a5,38ba <sbi_pmu_ctr_stop+0x8c>
    38b6:	57dd                	li	a5,-9
    38b8:	a229                	j	39c2 <sbi_pmu_ctr_stop+0x194>
    38ba:	fa040793          	addi	a5,s0,-96
    38be:	04000593          	li	a1,64
    38c2:	853e                	mv	a0,a5
    38c4:	1fa0e0ef          	jal	11abe <find_first_bit>
    38c8:	87aa                	mv	a5,a0
    38ca:	fcf42c23          	sw	a5,-40(s0)
    38ce:	a0e1                	j	3996 <sbi_pmu_ctr_stop+0x168>
    38d0:	fa843783          	ld	a5,-88(s0)
    38d4:	0007871b          	sext.w	a4,a5
    38d8:	fd842783          	lw	a5,-40(s0)
    38dc:	9fb9                	addw	a5,a5,a4
    38de:	2781                	sext.w	a5,a5
    38e0:	fcf42223          	sw	a5,-60(s0)
    38e4:	fc442783          	lw	a5,-60(s0)
    38e8:	fbc40713          	addi	a4,s0,-68
    38ec:	863a                	mv	a2,a4
    38ee:	85be                	mv	a1,a5
    38f0:	fd043503          	ld	a0,-48(s0)
    38f4:	b5aff0ef          	jal	2c4e <pmu_ctr_validate>
    38f8:	87aa                	mv	a5,a0
    38fa:	fcf42023          	sw	a5,-64(s0)
    38fe:	fc042783          	lw	a5,-64(s0)
    3902:	2781                	sext.w	a5,a5
    3904:	0607c863          	bltz	a5,3974 <sbi_pmu_ctr_stop+0x146>
    3908:	fc042783          	lw	a5,-64(s0)
    390c:	0007871b          	sext.w	a4,a5
    3910:	47bd                	li	a5,15
    3912:	02f71063          	bne	a4,a5,3932 <sbi_pmu_ctr_stop+0x104>
    3916:	fc442783          	lw	a5,-60(s0)
    391a:	fbc42703          	lw	a4,-68(s0)
    391e:	863a                	mv	a2,a4
    3920:	85be                	mv	a1,a5
    3922:	fd043503          	ld	a0,-48(s0)
    3926:	dcfff0ef          	jal	36f4 <pmu_ctr_stop_fw>
    392a:	87aa                	mv	a5,a0
    392c:	fcf42e23          	sw	a5,-36(s0)
    3930:	a809                	j	3942 <sbi_pmu_ctr_stop+0x114>
    3932:	fc442783          	lw	a5,-60(s0)
    3936:	853e                	mv	a0,a5
    3938:	ce5ff0ef          	jal	361c <pmu_ctr_stop_hw>
    393c:	87aa                	mv	a5,a0
    393e:	fcf42e23          	sw	a5,-36(s0)
    3942:	fc442783          	lw	a5,-60(s0)
    3946:	0007871b          	sext.w	a4,a5
    394a:	4789                	li	a5,2
    394c:	02e7d563          	bge	a5,a4,3976 <sbi_pmu_ctr_stop+0x148>
    3950:	f9843783          	ld	a5,-104(s0)
    3954:	8b85                	andi	a5,a5,1
    3956:	c385                	beqz	a5,3976 <sbi_pmu_ctr_stop+0x148>
    3958:	fd043703          	ld	a4,-48(s0)
    395c:	fc442783          	lw	a5,-60(s0)
    3960:	078a                	slli	a5,a5,0x2
    3962:	97ba                	add	a5,a5,a4
    3964:	577d                	li	a4,-1
    3966:	c3d8                	sw	a4,4(a5)
    3968:	fc442783          	lw	a5,-60(s0)
    396c:	853e                	mv	a0,a5
    396e:	e75ff0ef          	jal	37e2 <pmu_reset_hw_mhpmevent>
    3972:	a011                	j	3976 <sbi_pmu_ctr_stop+0x148>
    3974:	0001                	nop
    3976:	fd842783          	lw	a5,-40(s0)
    397a:	2785                	addiw	a5,a5,1
    397c:	2781                	sext.w	a5,a5
    397e:	873e                	mv	a4,a5
    3980:	fa040793          	addi	a5,s0,-96
    3984:	863a                	mv	a2,a4
    3986:	04000593          	li	a1,64
    398a:	853e                	mv	a0,a5
    398c:	3640e0ef          	jal	11cf0 <find_next_bit>
    3990:	87aa                	mv	a5,a0
    3992:	fcf42c23          	sw	a5,-40(s0)
    3996:	fd842783          	lw	a5,-40(s0)
    399a:	0007871b          	sext.w	a4,a5
    399e:	03f00793          	li	a5,63
    39a2:	f2e7d7e3          	bge	a5,a4,38d0 <sbi_pmu_ctr_stop+0xa2>
    39a6:	fd043783          	ld	a5,-48(s0)
    39aa:	0d07a783          	lw	a5,208(a5)
    39ae:	cb81                	beqz	a5,39be <sbi_pmu_ctr_stop+0x190>
    39b0:	6789                	lui	a5,0x2
    39b2:	fcf43423          	sd	a5,-56(s0)
    39b6:	fc843783          	ld	a5,-56(s0)
    39ba:	3447b073          	csrc	mip,a5
    39be:	fdc42783          	lw	a5,-36(s0)
    39c2:	853e                	mv	a0,a5
    39c4:	70a6                	ld	ra,104(sp)
    39c6:	7406                	ld	s0,96(sp)
    39c8:	64e6                	ld	s1,88(sp)
    39ca:	6165                	addi	sp,sp,112
    39cc:	8082                	ret

00000000000039ce <pmu_update_inhibit_flags>:
    39ce:	1101                	addi	sp,sp,-32
    39d0:	ec22                	sd	s0,24(sp)
    39d2:	1000                	addi	s0,sp,32
    39d4:	fea43423          	sd	a0,-24(s0)
    39d8:	feb43023          	sd	a1,-32(s0)
    39dc:	fe843783          	ld	a5,-24(s0)
    39e0:	8ba1                	andi	a5,a5,8
    39e2:	cb91                	beqz	a5,39f6 <pmu_update_inhibit_flags+0x28>
    39e4:	fe043783          	ld	a5,-32(s0)
    39e8:	6398                	ld	a4,0(a5)
    39ea:	4785                	li	a5,1
    39ec:	17ea                	slli	a5,a5,0x3a
    39ee:	8f5d                	or	a4,a4,a5
    39f0:	fe043783          	ld	a5,-32(s0)
    39f4:	e398                	sd	a4,0(a5)
    39f6:	fe843783          	ld	a5,-24(s0)
    39fa:	8bc1                	andi	a5,a5,16
    39fc:	cb91                	beqz	a5,3a10 <pmu_update_inhibit_flags+0x42>
    39fe:	fe043783          	ld	a5,-32(s0)
    3a02:	6398                	ld	a4,0(a5)
    3a04:	4785                	li	a5,1
    3a06:	17ee                	slli	a5,a5,0x3b
    3a08:	8f5d                	or	a4,a4,a5
    3a0a:	fe043783          	ld	a5,-32(s0)
    3a0e:	e398                	sd	a4,0(a5)
    3a10:	fe843783          	ld	a5,-24(s0)
    3a14:	0207f793          	andi	a5,a5,32
    3a18:	cb91                	beqz	a5,3a2c <pmu_update_inhibit_flags+0x5e>
    3a1a:	fe043783          	ld	a5,-32(s0)
    3a1e:	6398                	ld	a4,0(a5)
    3a20:	4785                	li	a5,1
    3a22:	17f2                	slli	a5,a5,0x3c
    3a24:	8f5d                	or	a4,a4,a5
    3a26:	fe043783          	ld	a5,-32(s0)
    3a2a:	e398                	sd	a4,0(a5)
    3a2c:	fe843783          	ld	a5,-24(s0)
    3a30:	0407f793          	andi	a5,a5,64
    3a34:	cb91                	beqz	a5,3a48 <pmu_update_inhibit_flags+0x7a>
    3a36:	fe043783          	ld	a5,-32(s0)
    3a3a:	6398                	ld	a4,0(a5)
    3a3c:	4785                	li	a5,1
    3a3e:	17f6                	slli	a5,a5,0x3d
    3a40:	8f5d                	or	a4,a4,a5
    3a42:	fe043783          	ld	a5,-32(s0)
    3a46:	e398                	sd	a4,0(a5)
    3a48:	0001                	nop
    3a4a:	6462                	ld	s0,24(sp)
    3a4c:	6105                	addi	sp,sp,32
    3a4e:	8082                	ret

0000000000003a50 <pmu_update_hw_mhpmevent>:
    3a50:	711d                	addi	sp,sp,-96
    3a52:	ec86                	sd	ra,88(sp)
    3a54:	e8a2                	sd	s0,80(sp)
    3a56:	1080                	addi	s0,sp,96
    3a58:	fca43423          	sd	a0,-56(s0)
    3a5c:	87ae                	mv	a5,a1
    3a5e:	fac43c23          	sd	a2,-72(s0)
    3a62:	fad43823          	sd	a3,-80(s0)
    3a66:	fae43423          	sd	a4,-88(s0)
    3a6a:	fcf42223          	sw	a5,-60(s0)
    3a6e:	340027f3          	csrr	a5,mscratch
    3a72:	80be                	mv	ra,a5
    3a74:	8786                	mv	a5,ra
    3a76:	fef43423          	sd	a5,-24(s0)
    3a7a:	fe843783          	ld	a5,-24(s0)
    3a7e:	67bc                	ld	a5,72(a5)
    3a80:	fef43023          	sd	a5,-32(s0)
    3a84:	fb043783          	ld	a5,-80(s0)
    3a88:	2781                	sext.w	a5,a5
    3a8a:	fa843603          	ld	a2,-88(s0)
    3a8e:	85be                	mv	a1,a5
    3a90:	fe043503          	ld	a0,-32(s0)
    3a94:	f33fe0ef          	jal	29c6 <sbi_platform_pmu_xlate_to_mhpmevent>
    3a98:	87aa                	mv	a5,a0
    3a9a:	fcf43c23          	sd	a5,-40(s0)
    3a9e:	fd843783          	ld	a5,-40(s0)
    3aa2:	cf99                	beqz	a5,3ac0 <pmu_update_hw_mhpmevent+0x70>
    3aa4:	fc442783          	lw	a5,-60(s0)
    3aa8:	0007871b          	sext.w	a4,a5
    3aac:	4789                	li	a5,2
    3aae:	00e7d963          	bge	a5,a4,3ac0 <pmu_update_hw_mhpmevent+0x70>
    3ab2:	fc442783          	lw	a5,-60(s0)
    3ab6:	0007871b          	sext.w	a4,a5
    3aba:	47fd                	li	a5,31
    3abc:	00e7d463          	bge	a5,a4,3ac4 <pmu_update_hw_mhpmevent+0x74>
    3ac0:	57fd                	li	a5,-1
    3ac2:	a865                	j	3b7a <pmu_update_hw_mhpmevent+0x12a>
    3ac4:	458d                	li	a1,3
    3ac6:	fe843503          	ld	a0,-24(s0)
    3aca:	6ce130ef          	jal	17198 <sbi_hart_has_extension>
    3ace:	87aa                	mv	a5,a0
    3ad0:	cb99                	beqz	a5,3ae6 <pmu_update_hw_mhpmevent+0x96>
    3ad2:	fd843703          	ld	a4,-40(s0)
    3ad6:	57fd                	li	a5,-1
    3ad8:	83a1                	srli	a5,a5,0x8
    3ada:	8f7d                	and	a4,a4,a5
    3adc:	57fd                	li	a5,-1
    3ade:	17fa                	slli	a5,a5,0x3e
    3ae0:	8fd9                	or	a5,a5,a4
    3ae2:	fcf43c23          	sd	a5,-40(s0)
    3ae6:	0007f797          	auipc	a5,0x7f
    3aea:	75278793          	addi	a5,a5,1874 # 83238 <pmu_dev>
    3aee:	639c                	ld	a5,0(a5)
    3af0:	c395                	beqz	a5,3b14 <pmu_update_hw_mhpmevent+0xc4>
    3af2:	0007f797          	auipc	a5,0x7f
    3af6:	74678793          	addi	a5,a5,1862 # 83238 <pmu_dev>
    3afa:	639c                	ld	a5,0(a5)
    3afc:	73bc                	ld	a5,96(a5)
    3afe:	cb99                	beqz	a5,3b14 <pmu_update_hw_mhpmevent+0xc4>
    3b00:	0007f797          	auipc	a5,0x7f
    3b04:	73878793          	addi	a5,a5,1848 # 83238 <pmu_dev>
    3b08:	639c                	ld	a5,0(a5)
    3b0a:	73bc                	ld	a5,96(a5)
    3b0c:	fc442703          	lw	a4,-60(s0)
    3b10:	853a                	mv	a0,a4
    3b12:	9782                	jalr	a5
    3b14:	458d                	li	a1,3
    3b16:	fe843503          	ld	a0,-24(s0)
    3b1a:	67e130ef          	jal	17198 <sbi_hart_has_extension>
    3b1e:	87aa                	mv	a5,a0
    3b20:	cb81                	beqz	a5,3b30 <pmu_update_hw_mhpmevent+0xe0>
    3b22:	fd840793          	addi	a5,s0,-40
    3b26:	85be                	mv	a1,a5
    3b28:	fb843503          	ld	a0,-72(s0)
    3b2c:	ea3ff0ef          	jal	39ce <pmu_update_inhibit_flags>
    3b30:	0007f797          	auipc	a5,0x7f
    3b34:	70878793          	addi	a5,a5,1800 # 83238 <pmu_dev>
    3b38:	639c                	ld	a5,0(a5)
    3b3a:	c785                	beqz	a5,3b62 <pmu_update_hw_mhpmevent+0x112>
    3b3c:	0007f797          	auipc	a5,0x7f
    3b40:	6fc78793          	addi	a5,a5,1788 # 83238 <pmu_dev>
    3b44:	639c                	ld	a5,0(a5)
    3b46:	7bbc                	ld	a5,112(a5)
    3b48:	cf89                	beqz	a5,3b62 <pmu_update_hw_mhpmevent+0x112>
    3b4a:	0007f797          	auipc	a5,0x7f
    3b4e:	6ee78793          	addi	a5,a5,1774 # 83238 <pmu_dev>
    3b52:	639c                	ld	a5,0(a5)
    3b54:	7bbc                	ld	a5,112(a5)
    3b56:	fc442703          	lw	a4,-60(s0)
    3b5a:	85ba                	mv	a1,a4
    3b5c:	fb843503          	ld	a0,-72(s0)
    3b60:	9782                	jalr	a5
    3b62:	fc442783          	lw	a5,-60(s0)
    3b66:	3207879b          	addiw	a5,a5,800
    3b6a:	2781                	sext.w	a5,a5
    3b6c:	fd843703          	ld	a4,-40(s0)
    3b70:	85ba                	mv	a1,a4
    3b72:	853e                	mv	a0,a5
    3b74:	7d60a0ef          	jal	e34a <csr_write_num>
    3b78:	4781                	li	a5,0
    3b7a:	853e                	mv	a0,a5
    3b7c:	60e6                	ld	ra,88(sp)
    3b7e:	6446                	ld	s0,80(sp)
    3b80:	6125                	addi	sp,sp,96
    3b82:	8082                	ret

0000000000003b84 <pmu_fixed_ctr_update_inhibit_bits>:
    3b84:	7139                	addi	sp,sp,-64
    3b86:	fc06                	sd	ra,56(sp)
    3b88:	f822                	sd	s0,48(sp)
    3b8a:	0080                	addi	s0,sp,64
    3b8c:	87aa                	mv	a5,a0
    3b8e:	fcb43023          	sd	a1,-64(s0)
    3b92:	fcf42623          	sw	a5,-52(s0)
    3b96:	340027f3          	csrr	a5,mscratch
    3b9a:	80be                	mv	ra,a5
    3b9c:	8786                	mv	a5,ra
    3b9e:	fef43023          	sd	a5,-32(s0)
    3ba2:	fc043c23          	sd	zero,-40(s0)
    3ba6:	45a1                	li	a1,8
    3ba8:	fe043503          	ld	a0,-32(s0)
    3bac:	5ec130ef          	jal	17198 <sbi_hart_has_extension>
    3bb0:	87aa                	mv	a5,a0
    3bb2:	e38d                	bnez	a5,3bd4 <pmu_fixed_ctr_update_inhibit_bits+0x50>
    3bb4:	0007f797          	auipc	a5,0x7f
    3bb8:	68478793          	addi	a5,a5,1668 # 83238 <pmu_dev>
    3bbc:	639c                	ld	a5,0(a5)
    3bbe:	cb81                	beqz	a5,3bce <pmu_fixed_ctr_update_inhibit_bits+0x4a>
    3bc0:	0007f797          	auipc	a5,0x7f
    3bc4:	67878793          	addi	a5,a5,1656 # 83238 <pmu_dev>
    3bc8:	639c                	ld	a5,0(a5)
    3bca:	7bbc                	ld	a5,112(a5)
    3bcc:	e781                	bnez	a5,3bd4 <pmu_fixed_ctr_update_inhibit_bits+0x50>
    3bce:	fcc42783          	lw	a5,-52(s0)
    3bd2:	a055                	j	3c76 <pmu_fixed_ctr_update_inhibit_bits+0xf2>
    3bd4:	fcc42783          	lw	a5,-52(s0)
    3bd8:	2781                	sext.w	a5,a5
    3bda:	cb89                	beqz	a5,3bec <pmu_fixed_ctr_update_inhibit_bits+0x68>
    3bdc:	fcc42783          	lw	a5,-52(s0)
    3be0:	0007871b          	sext.w	a4,a5
    3be4:	4789                	li	a5,2
    3be6:	00f70863          	beq	a4,a5,3bf6 <pmu_fixed_ctr_update_inhibit_bits+0x72>
    3bea:	a819                	j	3c00 <pmu_fixed_ctr_update_inhibit_bits+0x7c>
    3bec:	32100793          	li	a5,801
    3bf0:	fef43423          	sd	a5,-24(s0)
    3bf4:	a801                	j	3c04 <pmu_fixed_ctr_update_inhibit_bits+0x80>
    3bf6:	32200793          	li	a5,802
    3bfa:	fef43423          	sd	a5,-24(s0)
    3bfe:	a019                	j	3c04 <pmu_fixed_ctr_update_inhibit_bits+0x80>
    3c00:	57fd                	li	a5,-1
    3c02:	a895                	j	3c76 <pmu_fixed_ctr_update_inhibit_bits+0xf2>
    3c04:	fd843703          	ld	a4,-40(s0)
    3c08:	4785                	li	a5,1
    3c0a:	17fa                	slli	a5,a5,0x3e
    3c0c:	8fd9                	or	a5,a5,a4
    3c0e:	fcf43c23          	sd	a5,-40(s0)
    3c12:	45a1                	li	a1,8
    3c14:	fe043503          	ld	a0,-32(s0)
    3c18:	580130ef          	jal	17198 <sbi_hart_has_extension>
    3c1c:	87aa                	mv	a5,a0
    3c1e:	c38d                	beqz	a5,3c40 <pmu_fixed_ctr_update_inhibit_bits+0xbc>
    3c20:	fd840793          	addi	a5,s0,-40
    3c24:	85be                	mv	a1,a5
    3c26:	fc043503          	ld	a0,-64(s0)
    3c2a:	da5ff0ef          	jal	39ce <pmu_update_inhibit_flags>
    3c2e:	fe843783          	ld	a5,-24(s0)
    3c32:	2781                	sext.w	a5,a5
    3c34:	fd843703          	ld	a4,-40(s0)
    3c38:	85ba                	mv	a1,a4
    3c3a:	853e                	mv	a0,a5
    3c3c:	70e0a0ef          	jal	e34a <csr_write_num>
    3c40:	0007f797          	auipc	a5,0x7f
    3c44:	5f878793          	addi	a5,a5,1528 # 83238 <pmu_dev>
    3c48:	639c                	ld	a5,0(a5)
    3c4a:	c785                	beqz	a5,3c72 <pmu_fixed_ctr_update_inhibit_bits+0xee>
    3c4c:	0007f797          	auipc	a5,0x7f
