
build/platform/generic/firmware/fw_payload.elf:     file format elf64-littleriscv


Disassembly of section .text:

0000000000000000 <_fw_start>:
       0:	00050433          	add	s0,a0,zero
       4:	000584b3          	add	s1,a1,zero
       8:	00060933          	add	s2,a2,zero
       c:	65c000ef          	jal	668 <fw_boot_hart>
      10:	882a                	mv	a6,a0
      12:	00040533          	add	a0,s0,zero
      16:	000485b3          	add	a1,s1,zero
      1a:	00090633          	add	a2,s2,zero
      1e:	58fd                	li	a7,-1
      20:	01180463          	beq	a6,a7,28 <_try_lottery>
      24:	2b051b63          	bne	a0,a6,2da <_wait_for_boot_hart>

0000000000000028 <_try_lottery>:
      28:	00080817          	auipc	a6,0x80
      2c:	fd880813          	addi	a6,a6,-40 # 80000 <_fw_rw_start>
      30:	4885                	li	a7,1
      32:	0918282f          	amoswap.w	a6,a7,(a6)
      36:	2a081263          	bnez	a6,2da <_wait_for_boot_hart>
      3a:	4281                	li	t0,0
      3c:	00000317          	auipc	t1,0x0
      40:	fc430313          	addi	t1,t1,-60 # 0 <_fw_start>
      44:	405303b3          	sub	t2,t1,t0
      48:	00046297          	auipc	t0,0x46
      4c:	fb828293          	addi	t0,t0,-72 # 46000 <__rel_dyn_start>
      50:	00048317          	auipc	t1,0x48
      54:	7b830313          	addi	t1,t1,1976 # 48808 <__rel_dyn_end>
      58:	02628263          	beq	t0,t1,7c <_relocate_done>
      5c:	0082bf03          	ld	t5,8(t0)
      60:	4e0d                	li	t3,3
      62:	01cf1a63          	bne	t5,t3,76 <_try_lottery+0x4e>
      66:	0002be03          	ld	t3,0(t0)
      6a:	0102bf03          	ld	t5,16(t0)
      6e:	9f1e                	add	t5,t5,t2
      70:	9e1e                	add	t3,t3,t2
      72:	01ee3023          	sd	t5,0(t3)
      76:	02e1                	addi	t0,t0,24
      78:	fe62c2e3          	blt	t0,t1,5c <_try_lottery+0x34>

000000000000007c <_relocate_done>:
      7c:	4081                	li	ra,0
      7e:	5aa000ef          	jal	628 <_reset_regs>
      82:	00083a17          	auipc	s4,0x83
      86:	f7ea0a13          	addi	s4,s4,-130 # 83000 <coldboot_done>
      8a:	00086a97          	auipc	s5,0x86
      8e:	08ea8a93          	addi	s5,s5,142 # 86118 <_bss_end>

0000000000000092 <_bss_zero>:
      92:	000a3023          	sd	zero,0(s4)
      96:	0a21                	addi	s4,s4,8
      98:	ff5a4de3          	blt	s4,s5,92 <_bss_zero>
      9c:	00000a17          	auipc	s4,0x0
      a0:	31ca0a13          	addi	s4,s4,796 # 3b8 <_start_hang>
      a4:	305a1073          	csrw	mtvec,s4
      a8:	00087a17          	auipc	s4,0x87
      ac:	f58a0a13          	addi	s4,s4,-168 # 87000 <_fw_end>
      b0:	6a89                	lui	s5,0x2
      b2:	015a0133          	add	sp,s4,s5
      b6:	00050433          	add	s0,a0,zero
      ba:	000584b3          	add	s1,a1,zero
      be:	00060933          	add	s2,a2,zero
      c2:	000689b3          	add	s3,a3,zero
      c6:	00070a33          	add	s4,a4,zero
      ca:	5a6000ef          	jal	670 <fw_save_info>
      ce:	00040533          	add	a0,s0,zero
      d2:	000485b3          	add	a1,s1,zero
      d6:	00090633          	add	a2,s2,zero
      da:	000986b3          	add	a3,s3,zero
      de:	000a0733          	add	a4,s4,zero
      e2:	00050433          	add	s0,a0,zero
      e6:	000584b3          	add	s1,a1,zero
      ea:	00060933          	add	s2,a2,zero
      ee:	000689b3          	add	s3,a3,zero
      f2:	00070a33          	add	s4,a4,zero
      f6:	2dc0c0ef          	jal	c3d2 <fw_platform_init>
      fa:	000502b3          	add	t0,a0,zero
      fe:	00040533          	add	a0,s0,zero
     102:	000485b3          	add	a1,s1,zero
     106:	00090633          	add	a2,s2,zero
     10a:	000986b3          	add	a3,s3,zero
     10e:	000a0733          	add	a4,s4,zero
     112:	000285b3          	add	a1,t0,zero
     116:	00081717          	auipc	a4,0x81
     11a:	88270713          	addi	a4,a4,-1918 # 80998 <platform>
     11e:	05076b83          	lwu	s7,80(a4)
     122:	05476c03          	lwu	s8,84(a4)
     126:	05876c83          	lwu	s9,88(a4)
     12a:	00087217          	auipc	tp,0x87
     12e:	ed620213          	addi	tp,tp,-298 # 87000 <_fw_end>
     132:	038b87b3          	mul	a5,s7,s8
     136:	923e                	add	tp,tp,a5
     138:	00000d17          	auipc	s10,0x0
     13c:	ec8d0d13          	addi	s10,s10,-312 # 0 <_fw_start>
     140:	41a20d33          	sub	s10,tp,s10
     144:	9266                	add	tp,tp,s9
     146:	00020e33          	add	t3,tp,zero
     14a:	4385                	li	t2,1
     14c:	4301                	li	t1,0

000000000000014e <_scratch_init>:
     14e:	000e0233          	add	tp,t3,zero
     152:	41920233          	sub	tp,tp,s9
     156:	026c07b3          	mul	a5,s8,t1
     15a:	40f20233          	sub	tp,tp,a5
     15e:	6785                	lui	a5,0x1
     160:	40f20233          	sub	tp,tp,a5
     164:	00000717          	auipc	a4,0x0
     168:	e9c70713          	addi	a4,a4,-356 # 0 <_fw_start>
     16c:	40ee07b3          	sub	a5,t3,a4
     170:	00e23023          	sd	a4,0(tp) # 0 <_fw_start>
     174:	00f23423          	sd	a5,8(tp) # 8 <_fw_start+0x8>
     178:	00080797          	auipc	a5,0x80
     17c:	e8878793          	addi	a5,a5,-376 # 80000 <_fw_rw_start>
     180:	8f99                	sub	a5,a5,a4
     182:	00f23823          	sd	a5,16(tp) # 10 <_fw_start+0x10>
     186:	01a23c23          	sd	s10,24(tp) # 18 <_fw_start+0x18>
     18a:	03923023          	sd	s9,32(tp) # 20 <_fw_start+0x20>
     18e:	00050433          	add	s0,a0,zero
     192:	000584b3          	add	s1,a1,zero
     196:	00060933          	add	s2,a2,zero
     19a:	4de000ef          	jal	678 <fw_next_arg1>
     19e:	02a23423          	sd	a0,40(tp) # 28 <_try_lottery>
     1a2:	00040533          	add	a0,s0,zero
     1a6:	000485b3          	add	a1,s1,zero
     1aa:	00090633          	add	a2,s2,zero
     1ae:	00050433          	add	s0,a0,zero
     1b2:	000584b3          	add	s1,a1,zero
     1b6:	00060933          	add	s2,a2,zero
     1ba:	4ce000ef          	jal	688 <fw_next_addr>
     1be:	02a23823          	sd	a0,48(tp) # 30 <_try_lottery+0x8>
     1c2:	00040533          	add	a0,s0,zero
     1c6:	000485b3          	add	a1,s1,zero
     1ca:	00090633          	add	a2,s2,zero
     1ce:	00050433          	add	s0,a0,zero
     1d2:	000584b3          	add	s1,a1,zero
     1d6:	00060933          	add	s2,a2,zero
     1da:	4be000ef          	jal	698 <fw_next_mode>
     1de:	02a23c23          	sd	a0,56(tp) # 38 <_try_lottery+0x10>
     1e2:	00040533          	add	a0,s0,zero
     1e6:	000485b3          	add	a1,s1,zero
     1ea:	00090633          	add	a2,s2,zero
     1ee:	00000717          	auipc	a4,0x0
     1f2:	10a70713          	addi	a4,a4,266 # 2f8 <_start_warm>
     1f6:	04e23023          	sd	a4,64(tp) # 40 <_try_lottery+0x18>
     1fa:	00080717          	auipc	a4,0x80
     1fe:	79e70713          	addi	a4,a4,1950 # 80998 <platform>
     202:	04e23423          	sd	a4,72(tp) # 48 <_try_lottery+0x20>
     206:	00000717          	auipc	a4,0x0
     20a:	18270713          	addi	a4,a4,386 # 388 <_hartid_to_scratch>
     20e:	04e23823          	sd	a4,80(tp) # 50 <_try_lottery+0x28>
     212:	04023c23          	sd	zero,88(tp) # 58 <_try_lottery+0x30>
     216:	06023023          	sd	zero,96(tp) # 60 <_try_lottery+0x38>
     21a:	00050433          	add	s0,a0,zero
     21e:	000584b3          	add	s1,a1,zero
     222:	00060933          	add	s2,a2,zero
     226:	47a000ef          	jal	6a0 <fw_options>
     22a:	06a23423          	sd	a0,104(tp) # 68 <_try_lottery+0x40>
     22e:	00040533          	add	a0,s0,zero
     232:	000485b3          	add	a1,s1,zero
     236:	00090633          	add	a2,s2,zero
     23a:	931e                	add	t1,t1,t2
     23c:	f17349e3          	blt	t1,s7,14e <_scratch_init>
     240:	c1d9                	beqz	a1,2c6 <_fdt_reloc_done>
     242:	0ff00713          	li	a4,255
     246:	00050433          	add	s0,a0,zero
     24a:	000584b3          	add	s1,a1,zero
     24e:	00060933          	add	s2,a2,zero
     252:	426000ef          	jal	678 <fw_next_arg1>
     256:	00050333          	add	t1,a0,zero
     25a:	00040533          	add	a0,s0,zero
     25e:	000485b3          	add	a1,s1,zero
     262:	00090633          	add	a2,s2,zero
     266:	06030063          	beqz	t1,2c6 <_fdt_reloc_done>
     26a:	04b30e63          	beq	t1,a1,2c6 <_fdt_reloc_done>
     26e:	000582b3          	add	t0,a1,zero
     272:	0042e383          	lwu	t2,4(t0)
     276:	00038e33          	add	t3,t2,zero
     27a:	010e5e13          	srli	t3,t3,0x10
     27e:	00ee7e33          	and	t3,t3,a4
     282:	0e22                	slli	t3,t3,0x8
     284:	00038eb3          	add	t4,t2,zero
     288:	008ede93          	srli	t4,t4,0x8
     28c:	00eefeb3          	and	t4,t4,a4
     290:	0ec2                	slli	t4,t4,0x10
     292:	00038f33          	add	t5,t2,zero
     296:	00ef7f33          	and	t5,t5,a4
     29a:	0f62                	slli	t5,t5,0x18
     29c:	0183d393          	srli	t2,t2,0x18
     2a0:	00e3f3b3          	and	t2,t2,a4
     2a4:	01c3e3b3          	or	t2,t2,t3
     2a8:	01d3e3b3          	or	t2,t2,t4
     2ac:	01e3e3b3          	or	t2,t2,t5
     2b0:	939a                	add	t2,t2,t1
     2b2:	00735a63          	bge	t1,t2,2c6 <_fdt_reloc_done>

00000000000002b6 <_fdt_reloc_again>:
     2b6:	0002be03          	ld	t3,0(t0)
     2ba:	01c33023          	sd	t3,0(t1)
     2be:	02a1                	addi	t0,t0,8
     2c0:	0321                	addi	t1,t1,8
     2c2:	fe734ae3          	blt	t1,t2,2b6 <_fdt_reloc_again>

00000000000002c6 <_fdt_reloc_done>:
     2c6:	4289                	li	t0,2
     2c8:	00080317          	auipc	t1,0x80
     2cc:	d3830313          	addi	t1,t1,-712 # 80000 <_fw_rw_start>
     2d0:	0330000f          	fence	rw,rw
     2d4:	00533023          	sd	t0,0(t1)
     2d8:	a005                	j	2f8 <_start_warm>

00000000000002da <_wait_for_boot_hart>:
     2da:	4289                	li	t0,2
     2dc:	00080317          	auipc	t1,0x80
     2e0:	d2430313          	addi	t1,t1,-732 # 80000 <_fw_rw_start>
     2e4:	00033303          	ld	t1,0(t1)
     2e8:	0203c3b3          	div	t2,t2,zero
     2ec:	0203c3b3          	div	t2,t2,zero
     2f0:	0203c3b3          	div	t2,t2,zero
     2f4:	fe6293e3          	bne	t0,t1,2da <_wait_for_boot_hart>

00000000000002f8 <_start_warm>:
     2f8:	4081                	li	ra,0
     2fa:	32e000ef          	jal	628 <_reset_regs>
     2fe:	30401073          	csrw	mie,zero
     302:	00080717          	auipc	a4,0x80
     306:	69670713          	addi	a4,a4,1686 # 80998 <platform>
     30a:	05076b83          	lwu	s7,80(a4)
     30e:	05476c03          	lwu	s8,84(a4)
     312:	07073c83          	ld	s9,112(a4)
     316:	f1402b73          	csrr	s6,mhartid
     31a:	000c8d63          	beqz	s9,334 <_start_warm+0x3c>
     31e:	4701                	li	a4,0
     320:	000ce783          	lwu	a5,0(s9)
     324:	01678663          	beq	a5,s6,330 <_start_warm+0x38>
     328:	0c91                	addi	s9,s9,4
     32a:	0705                	addi	a4,a4,1
     32c:	ff774ae3          	blt	a4,s7,320 <_start_warm+0x28>
     330:	00070b33          	add	s6,a4,zero
     334:	097b5263          	bge	s6,s7,3b8 <_start_hang>
     338:	00087217          	auipc	tp,0x87
     33c:	cc820213          	addi	tp,tp,-824 # 87000 <_fw_end>
     340:	038b87b3          	mul	a5,s7,s8
     344:	923e                	add	tp,tp,a5
     346:	036c07b3          	mul	a5,s8,s6
     34a:	40f20233          	sub	tp,tp,a5
     34e:	6785                	lui	a5,0x1
     350:	40f20233          	sub	tp,tp,a5
     354:	34021073          	csrw	mscratch,tp
     358:	00020133          	add	sp,tp,zero
     35c:	00000717          	auipc	a4,0x0
     360:	06c70713          	addi	a4,a4,108 # 3c8 <_trap_handler>
     364:	301027f3          	csrr	a5,misa
     368:	839d                	srli	a5,a5,0x7
     36a:	8b85                	andi	a5,a5,1
     36c:	c789                	beqz	a5,376 <_skip_trap_handler_hyp>
     36e:	00000717          	auipc	a4,0x0
     372:	18270713          	addi	a4,a4,386 # 4f0 <_trap_handler_hyp>

0000000000000376 <_skip_trap_handler_hyp>:
     376:	30571073          	csrw	mtvec,a4
     37a:	34002573          	csrr	a0,mscratch
     37e:	24c010ef          	jal	15ca <sbi_init>
     382:	a81d                	j	3b8 <_start_hang>
     384:	00000013          	nop

0000000000000388 <_hartid_to_scratch>:
     388:	00080397          	auipc	t2,0x80
     38c:	61038393          	addi	t2,t2,1552 # 80998 <platform>
     390:	0543e283          	lwu	t0,84(t2)
     394:	0503e383          	lwu	t2,80(t2)
     398:	40b383b3          	sub	t2,t2,a1
     39c:	025383b3          	mul	t2,t2,t0
     3a0:	00087317          	auipc	t1,0x87
     3a4:	c6030313          	addi	t1,t1,-928 # 87000 <_fw_end>
     3a8:	931e                	add	t1,t1,t2
     3aa:	6385                	lui	t2,0x1
     3ac:	40730533          	sub	a0,t1,t2
     3b0:	8082                	ret
     3b2:	0001                	nop
     3b4:	00000013          	nop

00000000000003b8 <_start_hang>:
     3b8:	10500073          	wfi
     3bc:	bff5                	j	3b8 <_start_hang>
     3be:	0001                	nop
     3c0:	00058533          	add	a0,a1,zero
     3c4:	8082                	ret
     3c6:	0001                	nop

00000000000003c8 <_trap_handler>:
     3c8:	34021273          	csrrw	tp,mscratch,tp
     3cc:	06523023          	sd	t0,96(tp) # 60 <_try_lottery+0x38>
     3d0:	300022f3          	csrr	t0,mstatus
     3d4:	00b2d293          	srli	t0,t0,0xb
     3d8:	0032f293          	andi	t0,t0,3
     3dc:	0032a293          	slti	t0,t0,3
     3e0:	12fd                	addi	t0,t0,-1
     3e2:	00414133          	xor	sp,sp,tp
     3e6:	0022f2b3          	and	t0,t0,sp
     3ea:	00414133          	xor	sp,sp,tp
     3ee:	005242b3          	xor	t0,tp,t0
     3f2:	ec22b423          	sd	sp,-312(t0)
     3f6:	eb828113          	addi	sp,t0,-328
     3fa:	06023283          	ld	t0,96(tp) # 60 <_try_lottery+0x38>
     3fe:	f416                	sd	t0,40(sp)
     400:	34021273          	csrrw	tp,mscratch,tp
     404:	341022f3          	csrr	t0,mepc
     408:	e216                	sd	t0,256(sp)
     40a:	300022f3          	csrr	t0,mstatus
     40e:	e616                	sd	t0,264(sp)
     410:	ea02                	sd	zero,272(sp)
     412:	e002                	sd	zero,0(sp)
     414:	e406                	sd	ra,8(sp)
     416:	ec0e                	sd	gp,24(sp)
     418:	f012                	sd	tp,32(sp)
     41a:	f81a                	sd	t1,48(sp)
     41c:	fc1e                	sd	t2,56(sp)
     41e:	e0a2                	sd	s0,64(sp)
     420:	e4a6                	sd	s1,72(sp)
     422:	e8aa                	sd	a0,80(sp)
     424:	ecae                	sd	a1,88(sp)
     426:	f0b2                	sd	a2,96(sp)
     428:	f4b6                	sd	a3,104(sp)
     42a:	f8ba                	sd	a4,112(sp)
     42c:	fcbe                	sd	a5,120(sp)
     42e:	e142                	sd	a6,128(sp)
     430:	e546                	sd	a7,136(sp)
     432:	e94a                	sd	s2,144(sp)
     434:	ed4e                	sd	s3,152(sp)
     436:	f152                	sd	s4,160(sp)
     438:	f556                	sd	s5,168(sp)
     43a:	f95a                	sd	s6,176(sp)
     43c:	fd5e                	sd	s7,184(sp)
     43e:	e1e2                	sd	s8,192(sp)
     440:	e5e6                	sd	s9,200(sp)
     442:	e9ea                	sd	s10,208(sp)
     444:	edee                	sd	s11,216(sp)
     446:	f1f2                	sd	t3,224(sp)
     448:	f5f6                	sd	t4,232(sp)
     44a:	f9fa                	sd	t5,240(sp)
     44c:	fdfe                	sd	t6,248(sp)
     44e:	342022f3          	csrr	t0,mcause
     452:	ee16                	sd	t0,280(sp)
     454:	343022f3          	csrr	t0,mtval
     458:	f216                	sd	t0,288(sp)
     45a:	f602                	sd	zero,296(sp)
     45c:	fa02                	sd	zero,304(sp)
     45e:	4281                	li	t0,0
     460:	fe16                	sd	t0,312(sp)
     462:	00010533          	add	a0,sp,zero
     466:	3460a0ef          	jal	a7ac <sbi_trap_handler>
     46a:	00853083          	ld	ra,8(a0)
     46e:	01053103          	ld	sp,16(a0)
     472:	01853183          	ld	gp,24(a0)
     476:	02053203          	ld	tp,32(a0)
     47a:	03053303          	ld	t1,48(a0)
     47e:	03853383          	ld	t2,56(a0)
     482:	6120                	ld	s0,64(a0)
     484:	6524                	ld	s1,72(a0)
     486:	6d2c                	ld	a1,88(a0)
     488:	7130                	ld	a2,96(a0)
     48a:	7534                	ld	a3,104(a0)
     48c:	7938                	ld	a4,112(a0)
     48e:	7d3c                	ld	a5,120(a0)
     490:	08053803          	ld	a6,128(a0)
     494:	08853883          	ld	a7,136(a0)
     498:	09053903          	ld	s2,144(a0)
     49c:	09853983          	ld	s3,152(a0)
     4a0:	0a053a03          	ld	s4,160(a0)
     4a4:	0a853a83          	ld	s5,168(a0)
     4a8:	0b053b03          	ld	s6,176(a0)
     4ac:	0b853b83          	ld	s7,184(a0)
     4b0:	0c053c03          	ld	s8,192(a0)
     4b4:	0c853c83          	ld	s9,200(a0)
     4b8:	0d053d03          	ld	s10,208(a0)
     4bc:	0d853d83          	ld	s11,216(a0)
     4c0:	0e053e03          	ld	t3,224(a0)
     4c4:	0e853e83          	ld	t4,232(a0)
     4c8:	0f053f03          	ld	t5,240(a0)
     4cc:	0f853f83          	ld	t6,248(a0)
     4d0:	10053283          	ld	t0,256(a0)
     4d4:	34129073          	csrw	mepc,t0
     4d8:	10853283          	ld	t0,264(a0)
     4dc:	30029073          	csrw	mstatus,t0
     4e0:	02853283          	ld	t0,40(a0)
     4e4:	6928                	ld	a0,80(a0)
     4e6:	30200073          	mret
     4ea:	0001                	nop
     4ec:	00000013          	nop

00000000000004f0 <_trap_handler_hyp>:
     4f0:	34021273          	csrrw	tp,mscratch,tp
     4f4:	06523023          	sd	t0,96(tp) # 60 <_try_lottery+0x38>
     4f8:	300022f3          	csrr	t0,mstatus
     4fc:	00b2d293          	srli	t0,t0,0xb
     500:	0032f293          	andi	t0,t0,3
     504:	0032a293          	slti	t0,t0,3
     508:	12fd                	addi	t0,t0,-1
     50a:	00414133          	xor	sp,sp,tp
     50e:	0022f2b3          	and	t0,t0,sp
     512:	00414133          	xor	sp,sp,tp
     516:	005242b3          	xor	t0,tp,t0
     51a:	ec22b423          	sd	sp,-312(t0)
     51e:	eb828113          	addi	sp,t0,-328
     522:	06023283          	ld	t0,96(tp) # 60 <_try_lottery+0x38>
     526:	f416                	sd	t0,40(sp)
     528:	34021273          	csrrw	tp,mscratch,tp
     52c:	341022f3          	csrr	t0,mepc
     530:	e216                	sd	t0,256(sp)
     532:	300022f3          	csrr	t0,mstatus
     536:	e616                	sd	t0,264(sp)
     538:	ea02                	sd	zero,272(sp)
     53a:	e002                	sd	zero,0(sp)
     53c:	e406                	sd	ra,8(sp)
     53e:	ec0e                	sd	gp,24(sp)
     540:	f012                	sd	tp,32(sp)
     542:	f81a                	sd	t1,48(sp)
     544:	fc1e                	sd	t2,56(sp)
     546:	e0a2                	sd	s0,64(sp)
     548:	e4a6                	sd	s1,72(sp)
     54a:	e8aa                	sd	a0,80(sp)
     54c:	ecae                	sd	a1,88(sp)
     54e:	f0b2                	sd	a2,96(sp)
     550:	f4b6                	sd	a3,104(sp)
     552:	f8ba                	sd	a4,112(sp)
     554:	fcbe                	sd	a5,120(sp)
     556:	e142                	sd	a6,128(sp)
     558:	e546                	sd	a7,136(sp)
     55a:	e94a                	sd	s2,144(sp)
     55c:	ed4e                	sd	s3,152(sp)
     55e:	f152                	sd	s4,160(sp)
     560:	f556                	sd	s5,168(sp)
     562:	f95a                	sd	s6,176(sp)
     564:	fd5e                	sd	s7,184(sp)
     566:	e1e2                	sd	s8,192(sp)
     568:	e5e6                	sd	s9,200(sp)
     56a:	e9ea                	sd	s10,208(sp)
     56c:	edee                	sd	s11,216(sp)
     56e:	f1f2                	sd	t3,224(sp)
     570:	f5f6                	sd	t4,232(sp)
     572:	f9fa                	sd	t5,240(sp)
     574:	fdfe                	sd	t6,248(sp)
     576:	342022f3          	csrr	t0,mcause
     57a:	ee16                	sd	t0,280(sp)
     57c:	343022f3          	csrr	t0,mtval
     580:	f216                	sd	t0,288(sp)
     582:	34b022f3          	csrr	t0,0x34b
     586:	f616                	sd	t0,296(sp)
     588:	34a022f3          	csrr	t0,0x34a
     58c:	fa16                	sd	t0,304(sp)
     58e:	300022f3          	csrr	t0,mstatus
     592:	0262d293          	srli	t0,t0,0x26
     596:	0012f293          	andi	t0,t0,1
     59a:	fe16                	sd	t0,312(sp)
     59c:	00010533          	add	a0,sp,zero
     5a0:	20c0a0ef          	jal	a7ac <sbi_trap_handler>
     5a4:	00853083          	ld	ra,8(a0)
     5a8:	01053103          	ld	sp,16(a0)
     5ac:	01853183          	ld	gp,24(a0)
     5b0:	02053203          	ld	tp,32(a0)
     5b4:	03053303          	ld	t1,48(a0)
     5b8:	03853383          	ld	t2,56(a0)
     5bc:	6120                	ld	s0,64(a0)
     5be:	6524                	ld	s1,72(a0)
     5c0:	6d2c                	ld	a1,88(a0)
     5c2:	7130                	ld	a2,96(a0)
     5c4:	7534                	ld	a3,104(a0)
     5c6:	7938                	ld	a4,112(a0)
     5c8:	7d3c                	ld	a5,120(a0)
     5ca:	08053803          	ld	a6,128(a0)
     5ce:	08853883          	ld	a7,136(a0)
     5d2:	09053903          	ld	s2,144(a0)
     5d6:	09853983          	ld	s3,152(a0)
     5da:	0a053a03          	ld	s4,160(a0)
     5de:	0a853a83          	ld	s5,168(a0)
     5e2:	0b053b03          	ld	s6,176(a0)
     5e6:	0b853b83          	ld	s7,184(a0)
     5ea:	0c053c03          	ld	s8,192(a0)
     5ee:	0c853c83          	ld	s9,200(a0)
     5f2:	0d053d03          	ld	s10,208(a0)
     5f6:	0d853d83          	ld	s11,216(a0)
     5fa:	0e053e03          	ld	t3,224(a0)
     5fe:	0e853e83          	ld	t4,232(a0)
     602:	0f053f03          	ld	t5,240(a0)
     606:	0f853f83          	ld	t6,248(a0)
     60a:	10053283          	ld	t0,256(a0)
     60e:	34129073          	csrw	mepc,t0
     612:	10853283          	ld	t0,264(a0)
     616:	30029073          	csrw	mstatus,t0
     61a:	02853283          	ld	t0,40(a0)
     61e:	6928                	ld	a0,80(a0)
     620:	30200073          	mret
     624:	00000013          	nop

0000000000000628 <_reset_regs>:
     628:	0000100f          	fence.i
     62c:	4101                	li	sp,0
     62e:	4181                	li	gp,0
     630:	4201                	li	tp,0
     632:	4281                	li	t0,0
     634:	4301                	li	t1,0
     636:	4381                	li	t2,0
     638:	4401                	li	s0,0
     63a:	4481                	li	s1,0
     63c:	4781                	li	a5,0
     63e:	4801                	li	a6,0
     640:	4881                	li	a7,0
     642:	4901                	li	s2,0
     644:	4981                	li	s3,0
     646:	4a01                	li	s4,0
     648:	4a81                	li	s5,0
     64a:	4b01                	li	s6,0
     64c:	4b81                	li	s7,0
     64e:	4c01                	li	s8,0
     650:	4c81                	li	s9,0
     652:	4d01                	li	s10,0
     654:	4d81                	li	s11,0
     656:	4e01                	li	t3,0
     658:	4e81                	li	t4,0
     65a:	4f01                	li	t5,0
     65c:	4f81                	li	t6,0
     65e:	34005073          	csrwi	mscratch,0
     662:	8082                	ret
     664:	00000013          	nop

0000000000000668 <fw_boot_hart>:
     668:	557d                	li	a0,-1
     66a:	8082                	ret
     66c:	00000013          	nop

0000000000000670 <fw_save_info>:
     670:	8082                	ret
     672:	0001                	nop
     674:	00000013          	nop

0000000000000678 <fw_next_arg1>:
     678:	00000517          	auipc	a0,0x0
     67c:	98850513          	addi	a0,a0,-1656 # 0 <_fw_start>
     680:	022005b7          	lui	a1,0x2200
     684:	952e                	add	a0,a0,a1
     686:	8082                	ret

0000000000000688 <fw_next_addr>:
     688:	00200517          	auipc	a0,0x200
     68c:	97850513          	addi	a0,a0,-1672 # 200000 <payload_bin>
     690:	8082                	ret
     692:	0001                	nop
     694:	00000013          	nop

0000000000000698 <fw_next_mode>:
     698:	4505                	li	a0,1
     69a:	8082                	ret
     69c:	00000013          	nop

00000000000006a0 <fw_options>:
     6a0:	00000533          	add	a0,zero,zero
     6a4:	8082                	ret
	...

00000000000006a8 <_thead_tlb_flush_fixup_trap_handler>:
     6a8:	12500073          	sfence.vma	zero,t0
     6ac:	d1dff06f          	j	3c8 <_trap_handler>
	...

00000000000006b8 <memcpy>:
     6b8:	4610706f          	j	8318 <sbi_memcpy>
     6bc:	00000013          	nop

00000000000006c0 <memset>:
     6c0:	4070706f          	j	82c6 <sbi_memset>
     6c4:	00000013          	nop

00000000000006c8 <memmove>:
     6c8:	4b10706f          	j	8378 <sbi_memmove>
     6cc:	00000013          	nop

00000000000006d0 <memcmp>:
     6d0:	57b0706f          	j	844a <sbi_memcmp>

00000000000006d4 <sbi_popcount>:
     6d4:	7179                	addi	sp,sp,-48
     6d6:	f422                	sd	s0,40(sp)
     6d8:	1800                	addi	s0,sp,48
     6da:	fca43c23          	sd	a0,-40(s0)
     6de:	fe043423          	sd	zero,-24(s0)
     6e2:	a831                	j	6fe <sbi_popcount+0x2a>
     6e4:	fd843783          	ld	a5,-40(s0)
     6e8:	17fd                	addi	a5,a5,-1 # fff <init_coldboot+0x12b>
     6ea:	fd843703          	ld	a4,-40(s0)
     6ee:	8ff9                	and	a5,a5,a4
     6f0:	fcf43c23          	sd	a5,-40(s0)
     6f4:	fe843783          	ld	a5,-24(s0)
     6f8:	0785                	addi	a5,a5,1
     6fa:	fef43423          	sd	a5,-24(s0)
     6fe:	fd843783          	ld	a5,-40(s0)
     702:	f3ed                	bnez	a5,6e4 <sbi_popcount+0x10>
     704:	fe843783          	ld	a5,-24(s0)
     708:	853e                	mv	a0,a5
     70a:	7422                	ld	s0,40(sp)
     70c:	6145                	addi	sp,sp,48
     70e:	8082                	ret

0000000000000710 <sbi_heap_free_space>:
     710:	1141                	addi	sp,sp,-16
     712:	e406                	sd	ra,8(sp)
     714:	e022                	sd	s0,0(sp)
     716:	0800                	addi	s0,sp,16
     718:	00082517          	auipc	a0,0x82
     71c:	da853503          	ld	a0,-600(a0) # 824c0 <_GLOBAL_OFFSET_TABLE_+0x108>
     720:	24d190ef          	jal	1a16c <sbi_heap_free_space_from>
     724:	87aa                	mv	a5,a0
     726:	853e                	mv	a0,a5
     728:	60a2                	ld	ra,8(sp)
     72a:	6402                	ld	s0,0(sp)
     72c:	0141                	addi	sp,sp,16
     72e:	8082                	ret

0000000000000730 <sbi_heap_used_space>:
     730:	1141                	addi	sp,sp,-16
     732:	e406                	sd	ra,8(sp)
     734:	e022                	sd	s0,0(sp)
     736:	0800                	addi	s0,sp,16
     738:	00082517          	auipc	a0,0x82
     73c:	d8853503          	ld	a0,-632(a0) # 824c0 <_GLOBAL_OFFSET_TABLE_+0x108>
     740:	2a5190ef          	jal	1a1e4 <sbi_heap_used_space_from>
     744:	87aa                	mv	a5,a0
     746:	853e                	mv	a0,a5
     748:	60a2                	ld	ra,8(sp)
     74a:	6402                	ld	s0,0(sp)
     74c:	0141                	addi	sp,sp,16
     74e:	8082                	ret

0000000000000750 <sbi_heap_reserved_space>:
     750:	1141                	addi	sp,sp,-16
     752:	e406                	sd	ra,8(sp)
     754:	e022                	sd	s0,0(sp)
     756:	0800                	addi	s0,sp,16
     758:	00082517          	auipc	a0,0x82
     75c:	d6853503          	ld	a0,-664(a0) # 824c0 <_GLOBAL_OFFSET_TABLE_+0x108>
     760:	2b9190ef          	jal	1a218 <sbi_heap_reserved_space_from>
     764:	87aa                	mv	a5,a0
     766:	853e                	mv	a0,a5
     768:	60a2                	ld	ra,8(sp)
     76a:	6402                	ld	s0,0(sp)
     76c:	0141                	addi	sp,sp,16
     76e:	8082                	ret

0000000000000770 <sbi_platform_name>:
     770:	1101                	addi	sp,sp,-32
     772:	ec22                	sd	s0,24(sp)
     774:	1000                	addi	s0,sp,32
     776:	fea43423          	sd	a0,-24(s0)
     77a:	fe843783          	ld	a5,-24(s0)
     77e:	c789                	beqz	a5,788 <sbi_platform_name+0x18>
     780:	fe843783          	ld	a5,-24(s0)
     784:	07a1                	addi	a5,a5,8
     786:	a029                	j	790 <sbi_platform_name+0x20>
     788:	00033797          	auipc	a5,0x33
     78c:	87878793          	addi	a5,a5,-1928 # 33000 <_PROCEDURE_LINKAGE_TABLE_+0xab0>
     790:	853e                	mv	a0,a5
     792:	6462                	ld	s0,24(sp)
     794:	6105                	addi	sp,sp,32
     796:	8082                	ret

0000000000000798 <sbi_platform_hart_count>:
     798:	1101                	addi	sp,sp,-32
     79a:	ec22                	sd	s0,24(sp)
     79c:	1000                	addi	s0,sp,32
     79e:	fea43423          	sd	a0,-24(s0)
     7a2:	fe843783          	ld	a5,-24(s0)
     7a6:	c789                	beqz	a5,7b0 <sbi_platform_hart_count+0x18>
     7a8:	fe843783          	ld	a5,-24(s0)
     7ac:	4bbc                	lw	a5,80(a5)
     7ae:	a011                	j	7b2 <sbi_platform_hart_count+0x1a>
     7b0:	4781                	li	a5,0
     7b2:	853e                	mv	a0,a5
     7b4:	6462                	ld	s0,24(sp)
     7b6:	6105                	addi	sp,sp,32
     7b8:	8082                	ret

00000000000007ba <sbi_platform_cold_boot_allowed>:
     7ba:	1101                	addi	sp,sp,-32
     7bc:	ec06                	sd	ra,24(sp)
     7be:	e822                	sd	s0,16(sp)
     7c0:	1000                	addi	s0,sp,32
     7c2:	fea43423          	sd	a0,-24(s0)
     7c6:	87ae                	mv	a5,a1
     7c8:	fef42223          	sw	a5,-28(s0)
     7cc:	fe843783          	ld	a5,-24(s0)
     7d0:	c385                	beqz	a5,7f0 <sbi_platform_cold_boot_allowed+0x36>
     7d2:	fe843783          	ld	a5,-24(s0)
     7d6:	73bc                	ld	a5,96(a5)
     7d8:	639c                	ld	a5,0(a5)
     7da:	cb99                	beqz	a5,7f0 <sbi_platform_cold_boot_allowed+0x36>
     7dc:	fe843783          	ld	a5,-24(s0)
     7e0:	73bc                	ld	a5,96(a5)
     7e2:	639c                	ld	a5,0(a5)
     7e4:	fe442703          	lw	a4,-28(s0)
     7e8:	853a                	mv	a0,a4
     7ea:	9782                	jalr	a5
     7ec:	87aa                	mv	a5,a0
     7ee:	a011                	j	7f2 <sbi_platform_cold_boot_allowed+0x38>
     7f0:	4785                	li	a5,1
     7f2:	853e                	mv	a0,a5
     7f4:	60e2                	ld	ra,24(sp)
     7f6:	6442                	ld	s0,16(sp)
     7f8:	6105                	addi	sp,sp,32
     7fa:	8082                	ret

00000000000007fc <sbi_platform_nascent_init>:
     7fc:	1101                	addi	sp,sp,-32
     7fe:	ec06                	sd	ra,24(sp)
     800:	e822                	sd	s0,16(sp)
     802:	1000                	addi	s0,sp,32
     804:	fea43423          	sd	a0,-24(s0)
     808:	fe843783          	ld	a5,-24(s0)
     80c:	cf89                	beqz	a5,826 <sbi_platform_nascent_init+0x2a>
     80e:	fe843783          	ld	a5,-24(s0)
     812:	73bc                	ld	a5,96(a5)
     814:	679c                	ld	a5,8(a5)
     816:	cb81                	beqz	a5,826 <sbi_platform_nascent_init+0x2a>
     818:	fe843783          	ld	a5,-24(s0)
     81c:	73bc                	ld	a5,96(a5)
     81e:	679c                	ld	a5,8(a5)
     820:	9782                	jalr	a5
     822:	87aa                	mv	a5,a0
     824:	a011                	j	828 <sbi_platform_nascent_init+0x2c>
     826:	4781                	li	a5,0
     828:	853e                	mv	a0,a5
     82a:	60e2                	ld	ra,24(sp)
     82c:	6442                	ld	s0,16(sp)
     82e:	6105                	addi	sp,sp,32
     830:	8082                	ret

0000000000000832 <sbi_platform_early_init>:
     832:	1101                	addi	sp,sp,-32
     834:	ec06                	sd	ra,24(sp)
     836:	e822                	sd	s0,16(sp)
     838:	1000                	addi	s0,sp,32
     83a:	fea43423          	sd	a0,-24(s0)
     83e:	87ae                	mv	a5,a1
     840:	fef42223          	sw	a5,-28(s0)
     844:	fe843783          	ld	a5,-24(s0)
     848:	c385                	beqz	a5,868 <sbi_platform_early_init+0x36>
     84a:	fe843783          	ld	a5,-24(s0)
     84e:	73bc                	ld	a5,96(a5)
     850:	6b9c                	ld	a5,16(a5)
     852:	cb99                	beqz	a5,868 <sbi_platform_early_init+0x36>
     854:	fe843783          	ld	a5,-24(s0)
     858:	73bc                	ld	a5,96(a5)
     85a:	6b9c                	ld	a5,16(a5)
     85c:	fe442703          	lw	a4,-28(s0)
     860:	853a                	mv	a0,a4
     862:	9782                	jalr	a5
     864:	87aa                	mv	a5,a0
     866:	a011                	j	86a <sbi_platform_early_init+0x38>
     868:	4781                	li	a5,0
     86a:	853e                	mv	a0,a5
     86c:	60e2                	ld	ra,24(sp)
     86e:	6442                	ld	s0,16(sp)
     870:	6105                	addi	sp,sp,32
     872:	8082                	ret

0000000000000874 <sbi_platform_final_init>:
     874:	1101                	addi	sp,sp,-32
     876:	ec06                	sd	ra,24(sp)
     878:	e822                	sd	s0,16(sp)
     87a:	1000                	addi	s0,sp,32
     87c:	fea43423          	sd	a0,-24(s0)
     880:	87ae                	mv	a5,a1
     882:	fef42223          	sw	a5,-28(s0)
     886:	fe843783          	ld	a5,-24(s0)
     88a:	c385                	beqz	a5,8aa <sbi_platform_final_init+0x36>
     88c:	fe843783          	ld	a5,-24(s0)
     890:	73bc                	ld	a5,96(a5)
     892:	6f9c                	ld	a5,24(a5)
     894:	cb99                	beqz	a5,8aa <sbi_platform_final_init+0x36>
     896:	fe843783          	ld	a5,-24(s0)
     89a:	73bc                	ld	a5,96(a5)
     89c:	6f9c                	ld	a5,24(a5)
     89e:	fe442703          	lw	a4,-28(s0)
     8a2:	853a                	mv	a0,a4
     8a4:	9782                	jalr	a5
     8a6:	87aa                	mv	a5,a0
     8a8:	a011                	j	8ac <sbi_platform_final_init+0x38>
     8aa:	4781                	li	a5,0
     8ac:	853e                	mv	a0,a5
     8ae:	60e2                	ld	ra,24(sp)
     8b0:	6442                	ld	s0,16(sp)
     8b2:	6105                	addi	sp,sp,32
     8b4:	8082                	ret

00000000000008b6 <sbi_platform_early_exit>:
     8b6:	1101                	addi	sp,sp,-32
     8b8:	ec06                	sd	ra,24(sp)
     8ba:	e822                	sd	s0,16(sp)
     8bc:	1000                	addi	s0,sp,32
     8be:	fea43423          	sd	a0,-24(s0)
     8c2:	fe843783          	ld	a5,-24(s0)
     8c6:	cb99                	beqz	a5,8dc <sbi_platform_early_exit+0x26>
     8c8:	fe843783          	ld	a5,-24(s0)
     8cc:	73bc                	ld	a5,96(a5)
     8ce:	739c                	ld	a5,32(a5)
     8d0:	c791                	beqz	a5,8dc <sbi_platform_early_exit+0x26>
     8d2:	fe843783          	ld	a5,-24(s0)
     8d6:	73bc                	ld	a5,96(a5)
     8d8:	739c                	ld	a5,32(a5)
     8da:	9782                	jalr	a5
     8dc:	0001                	nop
     8de:	60e2                	ld	ra,24(sp)
     8e0:	6442                	ld	s0,16(sp)
     8e2:	6105                	addi	sp,sp,32
     8e4:	8082                	ret

00000000000008e6 <sbi_platform_final_exit>:
     8e6:	1101                	addi	sp,sp,-32
     8e8:	ec06                	sd	ra,24(sp)
     8ea:	e822                	sd	s0,16(sp)
     8ec:	1000                	addi	s0,sp,32
     8ee:	fea43423          	sd	a0,-24(s0)
     8f2:	fe843783          	ld	a5,-24(s0)
     8f6:	cb99                	beqz	a5,90c <sbi_platform_final_exit+0x26>
     8f8:	fe843783          	ld	a5,-24(s0)
     8fc:	73bc                	ld	a5,96(a5)
     8fe:	779c                	ld	a5,40(a5)
     900:	c791                	beqz	a5,90c <sbi_platform_final_exit+0x26>
     902:	fe843783          	ld	a5,-24(s0)
     906:	73bc                	ld	a5,96(a5)
     908:	779c                	ld	a5,40(a5)
     90a:	9782                	jalr	a5
     90c:	0001                	nop
     90e:	60e2                	ld	ra,24(sp)
     910:	6442                	ld	s0,16(sp)
     912:	6105                	addi	sp,sp,32
     914:	8082                	ret

0000000000000916 <sbi_boot_print_banner>:
     916:	1101                	addi	sp,sp,-32
     918:	ec06                	sd	ra,24(sp)
     91a:	e822                	sd	s0,16(sp)
     91c:	1000                	addi	s0,sp,32
     91e:	fea43423          	sd	a0,-24(s0)
     922:	fe843783          	ld	a5,-24(s0)
     926:	77bc                	ld	a5,104(a5)
     928:	8b85                	andi	a5,a5,1
     92a:	e385                	bnez	a5,94a <sbi_boot_print_banner+0x34>
     92c:	4615                	li	a2,5
     92e:	4585                	li	a1,1
     930:	00032517          	auipc	a0,0x32
     934:	6d850513          	addi	a0,a0,1752 # 33008 <_PROCEDURE_LINKAGE_TABLE_+0xab8>
     938:	044110ef          	jal	1197c <sbi_printf>
     93c:	00032517          	auipc	a0,0x32
     940:	6e450513          	addi	a0,a0,1764 # 33020 <_PROCEDURE_LINKAGE_TABLE_+0xad0>
     944:	038110ef          	jal	1197c <sbi_printf>
     948:	a011                	j	94c <sbi_boot_print_banner+0x36>
     94a:	0001                	nop
     94c:	60e2                	ld	ra,24(sp)
     94e:	6442                	ld	s0,16(sp)
     950:	6105                	addi	sp,sp,32
     952:	8082                	ret

0000000000000954 <sbi_boot_print_general>:
     954:	716d                	addi	sp,sp,-272
     956:	e606                	sd	ra,264(sp)
     958:	e222                	sd	s0,256(sp)
     95a:	fda6                	sd	s1,248(sp)
     95c:	f9ca                	sd	s2,240(sp)
     95e:	f5ce                	sd	s3,232(sp)
     960:	0a00                	addi	s0,sp,272
     962:	eea43c23          	sd	a0,-264(s0)
     966:	ef843783          	ld	a5,-264(s0)
     96a:	67bc                	ld	a5,72(a5)
     96c:	fcf43423          	sd	a5,-56(s0)
     970:	ef843783          	ld	a5,-264(s0)
     974:	77bc                	ld	a5,104(a5)
     976:	8b85                	andi	a5,a5,1
     978:	30079163          	bnez	a5,c7a <sbi_boot_print_general+0x326>
     97c:	fc843503          	ld	a0,-56(s0)
     980:	df1ff0ef          	jal	770 <sbi_platform_name>
     984:	87aa                	mv	a5,a0
     986:	85be                	mv	a1,a5
     988:	00032517          	auipc	a0,0x32
     98c:	7c050513          	addi	a0,a0,1984 # 33148 <_PROCEDURE_LINKAGE_TABLE_+0xbf8>
     990:	7ed100ef          	jal	1197c <sbi_printf>
     994:	f0840793          	addi	a5,s0,-248
     998:	08000613          	li	a2,128
     99c:	85be                	mv	a1,a5
     99e:	fc843503          	ld	a0,-56(s0)
     9a2:	325010ef          	jal	24c6 <sbi_platform_get_features_str>
     9a6:	f0840793          	addi	a5,s0,-248
     9aa:	85be                	mv	a1,a5
     9ac:	00032517          	auipc	a0,0x32
     9b0:	7bc50513          	addi	a0,a0,1980 # 33168 <_PROCEDURE_LINKAGE_TABLE_+0xc18>
     9b4:	7c9100ef          	jal	1197c <sbi_printf>
     9b8:	fc843503          	ld	a0,-56(s0)
     9bc:	dddff0ef          	jal	798 <sbi_platform_hart_count>
     9c0:	87aa                	mv	a5,a0
     9c2:	2781                	sext.w	a5,a5
     9c4:	85be                	mv	a1,a5
     9c6:	00032517          	auipc	a0,0x32
     9ca:	7c250513          	addi	a0,a0,1986 # 33188 <_PROCEDURE_LINKAGE_TABLE_+0xc38>
     9ce:	7af100ef          	jal	1197c <sbi_printf>
     9d2:	74a010ef          	jal	211c <sbi_ipi_get_device>
     9d6:	fca43023          	sd	a0,-64(s0)
     9da:	fc043783          	ld	a5,-64(s0)
     9de:	c781                	beqz	a5,9e6 <sbi_boot_print_general+0x92>
     9e0:	fc043783          	ld	a5,-64(s0)
     9e4:	a029                	j	9ee <sbi_boot_print_general+0x9a>
     9e6:	00032797          	auipc	a5,0x32
     9ea:	7c278793          	addi	a5,a5,1986 # 331a8 <_PROCEDURE_LINKAGE_TABLE_+0xc58>
     9ee:	85be                	mv	a1,a5
     9f0:	00032517          	auipc	a0,0x32
     9f4:	7c050513          	addi	a0,a0,1984 # 331b0 <_PROCEDURE_LINKAGE_TABLE_+0xc60>
     9f8:	785100ef          	jal	1197c <sbi_printf>
     9fc:	55e080ef          	jal	8f5a <sbi_timer_get_device>
     a00:	faa43c23          	sd	a0,-72(s0)
     a04:	fb843783          	ld	a5,-72(s0)
     a08:	c781                	beqz	a5,a10 <sbi_boot_print_general+0xbc>
     a0a:	fb843783          	ld	a5,-72(s0)
     a0e:	a029                	j	a18 <sbi_boot_print_general+0xc4>
     a10:	00032797          	auipc	a5,0x32
     a14:	79878793          	addi	a5,a5,1944 # 331a8 <_PROCEDURE_LINKAGE_TABLE_+0xc58>
     a18:	fb843703          	ld	a4,-72(s0)
     a1c:	c709                	beqz	a4,a26 <sbi_boot_print_general+0xd2>
     a1e:	fb843703          	ld	a4,-72(s0)
     a22:	7318                	ld	a4,32(a4)
     a24:	a011                	j	a28 <sbi_boot_print_general+0xd4>
     a26:	4701                	li	a4,0
     a28:	863a                	mv	a2,a4
     a2a:	85be                	mv	a1,a5
     a2c:	00032517          	auipc	a0,0x32
     a30:	7a450513          	addi	a0,a0,1956 # 331d0 <_PROCEDURE_LINKAGE_TABLE_+0xc80>
     a34:	749100ef          	jal	1197c <sbi_printf>
     a38:	0a2110ef          	jal	11ada <sbi_console_get_device>
     a3c:	faa43823          	sd	a0,-80(s0)
     a40:	fb043783          	ld	a5,-80(s0)
     a44:	c781                	beqz	a5,a4c <sbi_boot_print_general+0xf8>
     a46:	fb043783          	ld	a5,-80(s0)
     a4a:	a029                	j	a54 <sbi_boot_print_general+0x100>
     a4c:	00032797          	auipc	a5,0x32
     a50:	75c78793          	addi	a5,a5,1884 # 331a8 <_PROCEDURE_LINKAGE_TABLE_+0xc58>
     a54:	85be                	mv	a1,a5
     a56:	00032517          	auipc	a0,0x32
     a5a:	7a250513          	addi	a0,a0,1954 # 331f8 <_PROCEDURE_LINKAGE_TABLE_+0xca8>
     a5e:	71f100ef          	jal	1197c <sbi_printf>
     a62:	64f190ef          	jal	1a8b0 <sbi_hsm_get_device>
     a66:	faa43423          	sd	a0,-88(s0)
     a6a:	fa843783          	ld	a5,-88(s0)
     a6e:	c781                	beqz	a5,a76 <sbi_boot_print_general+0x122>
     a70:	fa843783          	ld	a5,-88(s0)
     a74:	a029                	j	a7e <sbi_boot_print_general+0x12a>
     a76:	00032797          	auipc	a5,0x32
     a7a:	73278793          	addi	a5,a5,1842 # 331a8 <_PROCEDURE_LINKAGE_TABLE_+0xc58>
     a7e:	85be                	mv	a1,a5
     a80:	00032517          	auipc	a0,0x32
     a84:	79850513          	addi	a0,a0,1944 # 33218 <_PROCEDURE_LINKAGE_TABLE_+0xcc8>
     a88:	6f5100ef          	jal	1197c <sbi_printf>
     a8c:	3f7030ef          	jal	4682 <sbi_pmu_get_device>
     a90:	faa43023          	sd	a0,-96(s0)
     a94:	fa043783          	ld	a5,-96(s0)
     a98:	c781                	beqz	a5,aa0 <sbi_boot_print_general+0x14c>
     a9a:	fa043783          	ld	a5,-96(s0)
     a9e:	a029                	j	aa8 <sbi_boot_print_general+0x154>
     aa0:	00032797          	auipc	a5,0x32
     aa4:	70878793          	addi	a5,a5,1800 # 331a8 <_PROCEDURE_LINKAGE_TABLE_+0xc58>
     aa8:	85be                	mv	a1,a5
     aaa:	00032517          	auipc	a0,0x32
     aae:	78e50513          	addi	a0,a0,1934 # 33238 <_PROCEDURE_LINKAGE_TABLE_+0xce8>
     ab2:	6cb100ef          	jal	1197c <sbi_printf>
     ab6:	4581                	li	a1,0
     ab8:	4505                	li	a0,1
     aba:	331070ef          	jal	85ea <sbi_system_reset_get_device>
     abe:	f8a43c23          	sd	a0,-104(s0)
     ac2:	f9843783          	ld	a5,-104(s0)
     ac6:	c781                	beqz	a5,ace <sbi_boot_print_general+0x17a>
     ac8:	f9843783          	ld	a5,-104(s0)
     acc:	a029                	j	ad6 <sbi_boot_print_general+0x182>
     ace:	00032797          	auipc	a5,0x32
     ad2:	6da78793          	addi	a5,a5,1754 # 331a8 <_PROCEDURE_LINKAGE_TABLE_+0xc58>
     ad6:	85be                	mv	a1,a5
     ad8:	00032517          	auipc	a0,0x32
     adc:	78050513          	addi	a0,a0,1920 # 33258 <_PROCEDURE_LINKAGE_TABLE_+0xd08>
     ae0:	69d100ef          	jal	1197c <sbi_printf>
     ae4:	4581                	li	a1,0
     ae6:	4501                	li	a0,0
     ae8:	303070ef          	jal	85ea <sbi_system_reset_get_device>
     aec:	f8a43c23          	sd	a0,-104(s0)
     af0:	f9843783          	ld	a5,-104(s0)
     af4:	c781                	beqz	a5,afc <sbi_boot_print_general+0x1a8>
     af6:	f9843783          	ld	a5,-104(s0)
     afa:	a029                	j	b04 <sbi_boot_print_general+0x1b0>
     afc:	00032797          	auipc	a5,0x32
     b00:	6ac78793          	addi	a5,a5,1708 # 331a8 <_PROCEDURE_LINKAGE_TABLE_+0xc58>
     b04:	85be                	mv	a1,a5
     b06:	00032517          	auipc	a0,0x32
     b0a:	77250513          	addi	a0,a0,1906 # 33278 <_PROCEDURE_LINKAGE_TABLE_+0xd28>
     b0e:	66f100ef          	jal	1197c <sbi_printf>
     b12:	517070ef          	jal	8828 <sbi_system_suspend_get_device>
     b16:	f8a43823          	sd	a0,-112(s0)
     b1a:	f9043783          	ld	a5,-112(s0)
     b1e:	c781                	beqz	a5,b26 <sbi_boot_print_general+0x1d2>
     b20:	f9043783          	ld	a5,-112(s0)
     b24:	a029                	j	b2e <sbi_boot_print_general+0x1da>
     b26:	00032797          	auipc	a5,0x32
     b2a:	68278793          	addi	a5,a5,1666 # 331a8 <_PROCEDURE_LINKAGE_TABLE_+0xc58>
     b2e:	85be                	mv	a1,a5
     b30:	00032517          	auipc	a0,0x32
     b34:	76850513          	addi	a0,a0,1896 # 33298 <_PROCEDURE_LINKAGE_TABLE_+0xd48>
     b38:	645100ef          	jal	1197c <sbi_printf>
     b3c:	11e0b0ef          	jal	bc5a <sbi_cppc_get_device>
     b40:	f8a43423          	sd	a0,-120(s0)
     b44:	f8843783          	ld	a5,-120(s0)
     b48:	c781                	beqz	a5,b50 <sbi_boot_print_general+0x1fc>
     b4a:	f8843783          	ld	a5,-120(s0)
     b4e:	a029                	j	b58 <sbi_boot_print_general+0x204>
     b50:	00032797          	auipc	a5,0x32
     b54:	65878793          	addi	a5,a5,1624 # 331a8 <_PROCEDURE_LINKAGE_TABLE_+0xc58>
     b58:	85be                	mv	a1,a5
     b5a:	00032517          	auipc	a0,0x32
     b5e:	75e50513          	addi	a0,a0,1886 # 332b8 <_PROCEDURE_LINKAGE_TABLE_+0xd68>
     b62:	61b100ef          	jal	1197c <sbi_printf>
     b66:	ef843783          	ld	a5,-264(s0)
     b6a:	639c                	ld	a5,0(a5)
     b6c:	85be                	mv	a1,a5
     b6e:	00032517          	auipc	a0,0x32
     b72:	76a50513          	addi	a0,a0,1898 # 332d8 <_PROCEDURE_LINKAGE_TABLE_+0xd88>
     b76:	607100ef          	jal	1197c <sbi_printf>
     b7a:	ef843783          	ld	a5,-264(s0)
     b7e:	679c                	ld	a5,8(a5)
     b80:	83a9                	srli	a5,a5,0xa
     b82:	2781                	sext.w	a5,a5
     b84:	85be                	mv	a1,a5
     b86:	00032517          	auipc	a0,0x32
     b8a:	77a50513          	addi	a0,a0,1914 # 33300 <_PROCEDURE_LINKAGE_TABLE_+0xdb0>
     b8e:	5ef100ef          	jal	1197c <sbi_printf>
     b92:	ef843783          	ld	a5,-264(s0)
     b96:	6b9c                	ld	a5,16(a5)
     b98:	85be                	mv	a1,a5
     b9a:	00032517          	auipc	a0,0x32
     b9e:	78e50513          	addi	a0,a0,1934 # 33328 <_PROCEDURE_LINKAGE_TABLE_+0xdd8>
     ba2:	5db100ef          	jal	1197c <sbi_printf>
     ba6:	ef843783          	ld	a5,-264(s0)
     baa:	6798                	ld	a4,8(a5)
     bac:	ef843783          	ld	a5,-264(s0)
     bb0:	6b9c                	ld	a5,16(a5)
     bb2:	40f707b3          	sub	a5,a4,a5
     bb6:	83a9                	srli	a5,a5,0xa
     bb8:	2781                	sext.w	a5,a5
     bba:	85be                	mv	a1,a5
     bbc:	00032517          	auipc	a0,0x32
     bc0:	79450513          	addi	a0,a0,1940 # 33350 <_PROCEDURE_LINKAGE_TABLE_+0xe00>
     bc4:	5b9100ef          	jal	1197c <sbi_printf>
     bc8:	ef843783          	ld	a5,-264(s0)
     bcc:	6f9c                	ld	a5,24(a5)
     bce:	85be                	mv	a1,a5
     bd0:	00032517          	auipc	a0,0x32
     bd4:	7a850513          	addi	a0,a0,1960 # 33378 <_PROCEDURE_LINKAGE_TABLE_+0xe28>
     bd8:	5a5100ef          	jal	1197c <sbi_printf>
     bdc:	ef843783          	ld	a5,-264(s0)
     be0:	739c                	ld	a5,32(a5)
     be2:	83a9                	srli	a5,a5,0xa
     be4:	0007849b          	sext.w	s1,a5
     be8:	b69ff0ef          	jal	750 <sbi_heap_reserved_space>
     bec:	87aa                	mv	a5,a0
     bee:	83a9                	srli	a5,a5,0xa
     bf0:	0007891b          	sext.w	s2,a5
     bf4:	b3dff0ef          	jal	730 <sbi_heap_used_space>
     bf8:	87aa                	mv	a5,a0
     bfa:	83a9                	srli	a5,a5,0xa
     bfc:	0007899b          	sext.w	s3,a5
     c00:	b11ff0ef          	jal	710 <sbi_heap_free_space>
     c04:	87aa                	mv	a5,a0
     c06:	83a9                	srli	a5,a5,0xa
     c08:	2781                	sext.w	a5,a5
     c0a:	873e                	mv	a4,a5
     c0c:	86ce                	mv	a3,s3
     c0e:	864a                	mv	a2,s2
     c10:	85a6                	mv	a1,s1
     c12:	00032517          	auipc	a0,0x32
     c16:	78e50513          	addi	a0,a0,1934 # 333a0 <_PROCEDURE_LINKAGE_TABLE_+0xe50>
     c1a:	563100ef          	jal	1197c <sbi_printf>
     c1e:	63e050ef          	jal	625c <sbi_scratch_used_space>
     c22:	87aa                	mv	a5,a0
     c24:	0007849b          	sext.w	s1,a5
     c28:	634050ef          	jal	625c <sbi_scratch_used_space>
     c2c:	87aa                	mv	a5,a0
     c2e:	2781                	sext.w	a5,a5
     c30:	6705                	lui	a4,0x1
     c32:	40f707bb          	subw	a5,a4,a5
     c36:	2781                	sext.w	a5,a5
     c38:	86be                	mv	a3,a5
     c3a:	8626                	mv	a2,s1
     c3c:	6585                	lui	a1,0x1
     c3e:	00032517          	auipc	a0,0x32
     c42:	7c250513          	addi	a0,a0,1986 # 33400 <_PROCEDURE_LINKAGE_TABLE_+0xeb0>
     c46:	537100ef          	jal	1197c <sbi_printf>
     c4a:	7430e0ef          	jal	fb8c <sbi_ecall_version_major>
     c4e:	87aa                	mv	a5,a0
     c50:	0007849b          	sext.w	s1,a5
     c54:	7490e0ef          	jal	fb9c <sbi_ecall_version_minor>
     c58:	87aa                	mv	a5,a0
     c5a:	2781                	sext.w	a5,a5
     c5c:	863e                	mv	a2,a5
     c5e:	85a6                	mv	a1,s1
     c60:	00032517          	auipc	a0,0x32
     c64:	7e850513          	addi	a0,a0,2024 # 33448 <_PROCEDURE_LINKAGE_TABLE_+0xef8>
     c68:	515100ef          	jal	1197c <sbi_printf>
     c6c:	00033517          	auipc	a0,0x33
     c70:	80450513          	addi	a0,a0,-2044 # 33470 <_PROCEDURE_LINKAGE_TABLE_+0xf20>
     c74:	509100ef          	jal	1197c <sbi_printf>
     c78:	a011                	j	c7c <sbi_boot_print_general+0x328>
     c7a:	0001                	nop
     c7c:	60b2                	ld	ra,264(sp)
     c7e:	6412                	ld	s0,256(sp)
     c80:	74ee                	ld	s1,248(sp)
     c82:	794e                	ld	s2,240(sp)
     c84:	79ae                	ld	s3,232(sp)
     c86:	6151                	addi	sp,sp,272
     c88:	8082                	ret

0000000000000c8a <sbi_boot_print_domains>:
     c8a:	1101                	addi	sp,sp,-32
     c8c:	ec06                	sd	ra,24(sp)
     c8e:	e822                	sd	s0,16(sp)
     c90:	1000                	addi	s0,sp,32
     c92:	fea43423          	sd	a0,-24(s0)
     c96:	fe843783          	ld	a5,-24(s0)
     c9a:	77bc                	ld	a5,104(a5)
     c9c:	8b85                	andi	a5,a5,1
     c9e:	eb81                	bnez	a5,cae <sbi_boot_print_domains+0x24>
     ca0:	00032517          	auipc	a0,0x32
     ca4:	7d850513          	addi	a0,a0,2008 # 33478 <_PROCEDURE_LINKAGE_TABLE_+0xf28>
     ca8:	428120ef          	jal	130d0 <sbi_domain_dump_all>
     cac:	a011                	j	cb0 <sbi_boot_print_domains+0x26>
     cae:	0001                	nop
     cb0:	60e2                	ld	ra,24(sp)
     cb2:	6442                	ld	s0,16(sp)
     cb4:	6105                	addi	sp,sp,32
     cb6:	8082                	ret

0000000000000cb8 <sbi_boot_print_hart>:
     cb8:	7131                	addi	sp,sp,-192
     cba:	fd06                	sd	ra,184(sp)
     cbc:	f922                	sd	s0,176(sp)
     cbe:	f526                	sd	s1,168(sp)
     cc0:	0180                	addi	s0,sp,192
     cc2:	f4a43423          	sd	a0,-184(s0)
     cc6:	87ae                	mv	a5,a1
     cc8:	f4f42223          	sw	a5,-188(s0)
     ccc:	f14027f3          	csrr	a5,mhartid
     cd0:	80be                	mv	ra,a5
     cd2:	8786                	mv	a5,ra
     cd4:	2781                	sext.w	a5,a5
     cd6:	853e                	mv	a0,a5
     cd8:	348050ef          	jal	6020 <sbi_hartid_to_hartindex>
     cdc:	87aa                	mv	a5,a0
     cde:	2781                	sext.w	a5,a5
     ce0:	853e                	mv	a0,a5
     ce2:	276110ef          	jal	11f58 <sbi_hartindex_to_domain>
     ce6:	fca43c23          	sd	a0,-40(s0)
     cea:	f4843783          	ld	a5,-184(s0)
     cee:	77bc                	ld	a5,104(a5)
     cf0:	8b85                	andi	a5,a5,1
     cf2:	16079963          	bnez	a5,e64 <sbi_boot_print_hart+0x1ac>
     cf6:	2510c0ef          	jal	d746 <misa_xlen>
     cfa:	87aa                	mv	a5,a0
     cfc:	fcf42a23          	sw	a5,-44(s0)
     d00:	fd442783          	lw	a5,-44(s0)
     d04:	2781                	sext.w	a5,a5
     d06:	00f04d63          	bgtz	a5,d20 <sbi_boot_print_hart+0x68>
     d0a:	fd442783          	lw	a5,-44(s0)
     d0e:	85be                	mv	a1,a5
     d10:	00032517          	auipc	a0,0x32
     d14:	77050513          	addi	a0,a0,1904 # 33480 <_PROCEDURE_LINKAGE_TABLE_+0xf30>
     d18:	465100ef          	jal	1197c <sbi_printf>
     d1c:	345180ef          	jal	19860 <sbi_hart_hang>
     d20:	f4442783          	lw	a5,-188(s0)
     d24:	85be                	mv	a1,a5
     d26:	00032517          	auipc	a0,0x32
     d2a:	77a50513          	addi	a0,a0,1914 # 334a0 <_PROCEDURE_LINKAGE_TABLE_+0xf50>
     d2e:	44f100ef          	jal	1197c <sbi_printf>
     d32:	fd843783          	ld	a5,-40(s0)
     d36:	07f1                	addi	a5,a5,28
     d38:	85be                	mv	a1,a5
     d3a:	00032517          	auipc	a0,0x32
     d3e:	78650513          	addi	a0,a0,1926 # 334c0 <_PROCEDURE_LINKAGE_TABLE_+0xf70>
     d42:	43b100ef          	jal	1197c <sbi_printf>
     d46:	f5040793          	addi	a5,s0,-176
     d4a:	08000613          	li	a2,128
     d4e:	85be                	mv	a1,a5
     d50:	f4843503          	ld	a0,-184(s0)
     d54:	40d140ef          	jal	15960 <sbi_hart_get_priv_version_str>
     d58:	f5040793          	addi	a5,s0,-176
     d5c:	85be                	mv	a1,a5
     d5e:	00032517          	auipc	a0,0x32
     d62:	78250513          	addi	a0,a0,1922 # 334e0 <_PROCEDURE_LINKAGE_TABLE_+0xf90>
     d66:	417100ef          	jal	1197c <sbi_printf>
     d6a:	f5040713          	addi	a4,s0,-176
     d6e:	fd442783          	lw	a5,-44(s0)
     d72:	08000613          	li	a2,128
     d76:	85ba                	mv	a1,a4
     d78:	853e                	mv	a0,a5
     d7a:	2290c0ef          	jal	d7a2 <misa_string>
     d7e:	f5040793          	addi	a5,s0,-176
     d82:	85be                	mv	a1,a5
     d84:	00032517          	auipc	a0,0x32
     d88:	77c50513          	addi	a0,a0,1916 # 33500 <_PROCEDURE_LINKAGE_TABLE_+0xfb0>
     d8c:	3f1100ef          	jal	1197c <sbi_printf>
     d90:	f5040793          	addi	a5,s0,-176
     d94:	08000613          	li	a2,128
     d98:	85be                	mv	a1,a5
     d9a:	f4843503          	ld	a0,-184(s0)
     d9e:	55b140ef          	jal	15af8 <sbi_hart_get_extensions_str>
     da2:	f5040793          	addi	a5,s0,-176
     da6:	85be                	mv	a1,a5
     da8:	00032517          	auipc	a0,0x32
     dac:	77850513          	addi	a0,a0,1912 # 33520 <_PROCEDURE_LINKAGE_TABLE_+0xfd0>
     db0:	3cd100ef          	jal	1197c <sbi_printf>
     db4:	f4843503          	ld	a0,-184(s0)
     db8:	2a8140ef          	jal	15060 <sbi_hart_pmp_count>
     dbc:	87aa                	mv	a5,a0
     dbe:	2781                	sext.w	a5,a5
     dc0:	85be                	mv	a1,a5
     dc2:	00032517          	auipc	a0,0x32
     dc6:	77e50513          	addi	a0,a0,1918 # 33540 <_PROCEDURE_LINKAGE_TABLE_+0xff0>
     dca:	3b3100ef          	jal	1197c <sbi_printf>
     dce:	f4843503          	ld	a0,-184(s0)
     dd2:	2ba140ef          	jal	1508c <sbi_hart_pmp_log2gran>
     dd6:	87aa                	mv	a5,a0
     dd8:	2781                	sext.w	a5,a5
     dda:	85be                	mv	a1,a5
     ddc:	00032517          	auipc	a0,0x32
     de0:	78450513          	addi	a0,a0,1924 # 33560 <_PROCEDURE_LINKAGE_TABLE_+0x1010>
     de4:	399100ef          	jal	1197c <sbi_printf>
     de8:	f4843503          	ld	a0,-184(s0)
     dec:	2cc140ef          	jal	150b8 <sbi_hart_pmp_addrbits>
     df0:	87aa                	mv	a5,a0
     df2:	2781                	sext.w	a5,a5
     df4:	85be                	mv	a1,a5
     df6:	00032517          	auipc	a0,0x32
     dfa:	79250513          	addi	a0,a0,1938 # 33588 <_PROCEDURE_LINKAGE_TABLE_+0x1038>
     dfe:	37f100ef          	jal	1197c <sbi_printf>
     e02:	f4843503          	ld	a0,-184(s0)
     e06:	22e140ef          	jal	15034 <sbi_hart_mhpm_mask>
     e0a:	87aa                	mv	a5,a0
     e0c:	2781                	sext.w	a5,a5
     e0e:	1782                	slli	a5,a5,0x20
     e10:	9381                	srli	a5,a5,0x20
     e12:	853e                	mv	a0,a5
     e14:	8c1ff0ef          	jal	6d4 <sbi_popcount>
     e18:	84aa                	mv	s1,a0
     e1a:	f4843503          	ld	a0,-184(s0)
     e1e:	216140ef          	jal	15034 <sbi_hart_mhpm_mask>
     e22:	87aa                	mv	a5,a0
     e24:	2781                	sext.w	a5,a5
     e26:	863e                	mv	a2,a5
     e28:	85a6                	mv	a1,s1
     e2a:	00032517          	auipc	a0,0x32
     e2e:	77e50513          	addi	a0,a0,1918 # 335a8 <_PROCEDURE_LINKAGE_TABLE_+0x1058>
     e32:	34b100ef          	jal	1197c <sbi_printf>
     e36:	28c040ef          	jal	50c2 <sbi_dbtr_get_total_triggers>
     e3a:	87aa                	mv	a5,a0
     e3c:	85be                	mv	a1,a5
     e3e:	00032517          	auipc	a0,0x32
     e42:	79a50513          	addi	a0,a0,1946 # 335d8 <_PROCEDURE_LINKAGE_TABLE_+0x1088>
     e46:	337100ef          	jal	1197c <sbi_printf>
     e4a:	00032617          	auipc	a2,0x32
     e4e:	7be60613          	addi	a2,a2,1982 # 33608 <_PROCEDURE_LINKAGE_TABLE_+0x10b8>
     e52:	00032597          	auipc	a1,0x32
     e56:	7c658593          	addi	a1,a1,1990 # 33618 <_PROCEDURE_LINKAGE_TABLE_+0x10c8>
     e5a:	f4843503          	ld	a0,-184(s0)
     e5e:	16e140ef          	jal	14fcc <sbi_hart_delegation_dump>
     e62:	a011                	j	e66 <sbi_boot_print_hart+0x1ae>
     e64:	0001                	nop
     e66:	70ea                	ld	ra,184(sp)
     e68:	744a                	ld	s0,176(sp)
     e6a:	74aa                	ld	s1,168(sp)
     e6c:	6129                	addi	sp,sp,192
     e6e:	8082                	ret

0000000000000e70 <wait_for_coldboot>:
     e70:	7179                	addi	sp,sp,-48
     e72:	f422                	sd	s0,40(sp)
     e74:	1800                	addi	s0,sp,48
     e76:	fca43c23          	sd	a0,-40(s0)
     e7a:	87ae                	mv	a5,a1
     e7c:	fcf42a23          	sw	a5,-44(s0)
     e80:	a029                	j	e8a <wait_for_coldboot+0x1a>
     e82:	0207c7b3          	div	a5,a5,zero
     e86:	fef43023          	sd	a5,-32(s0)
     e8a:	00082797          	auipc	a5,0x82
     e8e:	17678793          	addi	a5,a5,374 # 83000 <coldboot_done>
     e92:	639c                	ld	a5,0(a5)
     e94:	fef43423          	sd	a5,-24(s0)
     e98:	0230000f          	fence	r,rw
     e9c:	fe843783          	ld	a5,-24(s0)
     ea0:	d3ed                	beqz	a5,e82 <wait_for_coldboot+0x12>
     ea2:	0001                	nop
     ea4:	0001                	nop
     ea6:	7422                	ld	s0,40(sp)
     ea8:	6145                	addi	sp,sp,48
     eaa:	8082                	ret

0000000000000eac <wake_coldboot_harts>:
     eac:	1101                	addi	sp,sp,-32
     eae:	ec22                	sd	s0,24(sp)
     eb0:	1000                	addi	s0,sp,32
     eb2:	fea43423          	sd	a0,-24(s0)
     eb6:	87ae                	mv	a5,a1
     eb8:	fef42223          	sw	a5,-28(s0)
     ebc:	0310000f          	fence	rw,w
     ec0:	00082797          	auipc	a5,0x82
     ec4:	14078793          	addi	a5,a5,320 # 83000 <coldboot_done>
     ec8:	4705                	li	a4,1
     eca:	e398                	sd	a4,0(a5)
     ecc:	0001                	nop
     ece:	6462                	ld	s0,24(sp)
     ed0:	6105                	addi	sp,sp,32
     ed2:	8082                	ret

0000000000000ed4 <init_coldboot>:
     ed4:	7139                	addi	sp,sp,-64
     ed6:	fc06                	sd	ra,56(sp)
     ed8:	f822                	sd	s0,48(sp)
     eda:	0080                	addi	s0,sp,64
     edc:	fca43423          	sd	a0,-56(s0)
     ee0:	87ae                	mv	a5,a1
     ee2:	fcf42223          	sw	a5,-60(s0)
     ee6:	fc843783          	ld	a5,-56(s0)
     eea:	67bc                	ld	a5,72(a5)
     eec:	fef43423          	sd	a5,-24(s0)
     ef0:	fc843503          	ld	a0,-56(s0)
     ef4:	188050ef          	jal	607c <sbi_scratch_init>
     ef8:	87aa                	mv	a5,a0
     efa:	fef42223          	sw	a5,-28(s0)
     efe:	fe442783          	lw	a5,-28(s0)
     f02:	2781                	sext.w	a5,a5
     f04:	c399                	beqz	a5,f0a <init_coldboot+0x36>
     f06:	15b180ef          	jal	19860 <sbi_hart_hang>
     f0a:	fc843503          	ld	a0,-56(s0)
     f0e:	4ac190ef          	jal	1a3ba <sbi_heap_init>
     f12:	87aa                	mv	a5,a0
     f14:	fef42223          	sw	a5,-28(s0)
     f18:	fe442783          	lw	a5,-28(s0)
     f1c:	2781                	sext.w	a5,a5
     f1e:	c399                	beqz	a5,f24 <init_coldboot+0x50>
     f20:	141180ef          	jal	19860 <sbi_hart_hang>
     f24:	fc442783          	lw	a5,-60(s0)
     f28:	85be                	mv	a1,a5
     f2a:	fc843503          	ld	a0,-56(s0)
     f2e:	15d120ef          	jal	1388a <sbi_domain_init>
     f32:	87aa                	mv	a5,a0
     f34:	fef42223          	sw	a5,-28(s0)
     f38:	fe442783          	lw	a5,-28(s0)
     f3c:	2781                	sext.w	a5,a5
     f3e:	c399                	beqz	a5,f44 <init_coldboot+0x70>
     f40:	121180ef          	jal	19860 <sbi_hart_hang>
     f44:	4521                	li	a0,8
     f46:	1f0050ef          	jal	6136 <sbi_scratch_alloc_offset>
     f4a:	872a                	mv	a4,a0
     f4c:	00082797          	auipc	a5,0x82
     f50:	0bc78793          	addi	a5,a5,188 # 83008 <entry_count_offset>
     f54:	e398                	sd	a4,0(a5)
     f56:	00082797          	auipc	a5,0x82
     f5a:	0b278793          	addi	a5,a5,178 # 83008 <entry_count_offset>
     f5e:	639c                	ld	a5,0(a5)
     f60:	e399                	bnez	a5,f66 <init_coldboot+0x92>
     f62:	0ff180ef          	jal	19860 <sbi_hart_hang>
     f66:	4521                	li	a0,8
     f68:	1ce050ef          	jal	6136 <sbi_scratch_alloc_offset>
     f6c:	872a                	mv	a4,a0
     f6e:	00082797          	auipc	a5,0x82
     f72:	0a278793          	addi	a5,a5,162 # 83010 <init_count_offset>
     f76:	e398                	sd	a4,0(a5)
     f78:	00082797          	auipc	a5,0x82
     f7c:	09878793          	addi	a5,a5,152 # 83010 <init_count_offset>
     f80:	639c                	ld	a5,0(a5)
     f82:	e399                	bnez	a5,f88 <init_coldboot+0xb4>
     f84:	0dd180ef          	jal	19860 <sbi_hart_hang>
     f88:	00082797          	auipc	a5,0x82
     f8c:	08078793          	addi	a5,a5,128 # 83008 <entry_count_offset>
     f90:	639c                	ld	a5,0(a5)
     f92:	fc843703          	ld	a4,-56(s0)
     f96:	97ba                	add	a5,a5,a4
     f98:	fcf43c23          	sd	a5,-40(s0)
     f9c:	fd843783          	ld	a5,-40(s0)
     fa0:	639c                	ld	a5,0(a5)
     fa2:	00178713          	addi	a4,a5,1
     fa6:	fd843783          	ld	a5,-40(s0)
     faa:	e398                	sd	a4,0(a5)
     fac:	fc442783          	lw	a5,-60(s0)
     fb0:	4605                	li	a2,1
     fb2:	85be                	mv	a1,a5
     fb4:	fc843503          	ld	a0,-56(s0)
     fb8:	2d7190ef          	jal	1aa8e <sbi_hsm_init>
     fbc:	87aa                	mv	a5,a0
     fbe:	fef42223          	sw	a5,-28(s0)
     fc2:	fe442783          	lw	a5,-28(s0)
     fc6:	2781                	sext.w	a5,a5
     fc8:	c399                	beqz	a5,fce <init_coldboot+0xfa>
     fca:	097180ef          	jal	19860 <sbi_hart_hang>
     fce:	fc442783          	lw	a5,-60(s0)
     fd2:	85be                	mv	a1,a5
     fd4:	fc843503          	ld	a0,-56(s0)
     fd8:	ed5ff0ef          	jal	eac <wake_coldboot_harts>
     fdc:	4585                	li	a1,1
     fde:	fe843503          	ld	a0,-24(s0)
     fe2:	851ff0ef          	jal	832 <sbi_platform_early_init>
     fe6:	87aa                	mv	a5,a0
     fe8:	fef42223          	sw	a5,-28(s0)
     fec:	fe442783          	lw	a5,-28(s0)
     ff0:	2781                	sext.w	a5,a5
     ff2:	c399                	beqz	a5,ff8 <init_coldboot+0x124>
     ff4:	06d180ef          	jal	19860 <sbi_hart_hang>
     ff8:	4585                	li	a1,1
     ffa:	fc843503          	ld	a0,-56(s0)
     ffe:	7c8180ef          	jal	197c6 <sbi_hart_init>
    1002:	87aa                	mv	a5,a0
    1004:	fef42223          	sw	a5,-28(s0)
    1008:	fe442783          	lw	a5,-28(s0)
    100c:	2781                	sext.w	a5,a5
    100e:	c399                	beqz	a5,1014 <init_coldboot+0x140>
    1010:	051180ef          	jal	19860 <sbi_hart_hang>
    1014:	4585                	li	a1,1
    1016:	fc843503          	ld	a0,-56(s0)
    101a:	545060ef          	jal	7d5e <sbi_sse_init>
    101e:	87aa                	mv	a5,a0
    1020:	fef42223          	sw	a5,-28(s0)
    1024:	fe442783          	lw	a5,-28(s0)
    1028:	2781                	sext.w	a5,a5
    102a:	c385                	beqz	a5,104a <init_coldboot+0x176>
    102c:	fe442783          	lw	a5,-28(s0)
    1030:	863e                	mv	a2,a5
    1032:	00032597          	auipc	a1,0x32
    1036:	79658593          	addi	a1,a1,1942 # 337c8 <__func__.0>
    103a:	00032517          	auipc	a0,0x32
    103e:	5ee50513          	addi	a0,a0,1518 # 33628 <_PROCEDURE_LINKAGE_TABLE_+0x10d8>
    1042:	13b100ef          	jal	1197c <sbi_printf>
    1046:	01b180ef          	jal	19860 <sbi_hart_hang>
    104a:	4585                	li	a1,1
    104c:	fc843503          	ld	a0,-56(s0)
    1050:	027030ef          	jal	4876 <sbi_pmu_init>
    1054:	87aa                	mv	a5,a0
    1056:	fef42223          	sw	a5,-28(s0)
    105a:	fe442783          	lw	a5,-28(s0)
    105e:	2781                	sext.w	a5,a5
    1060:	c385                	beqz	a5,1080 <init_coldboot+0x1ac>
    1062:	fe442783          	lw	a5,-28(s0)
    1066:	863e                	mv	a2,a5
    1068:	00032597          	auipc	a1,0x32
    106c:	76058593          	addi	a1,a1,1888 # 337c8 <__func__.0>
    1070:	00032517          	auipc	a0,0x32
    1074:	5d850513          	addi	a0,a0,1496 # 33648 <_PROCEDURE_LINKAGE_TABLE_+0x10f8>
    1078:	105100ef          	jal	1197c <sbi_printf>
    107c:	7e4180ef          	jal	19860 <sbi_hart_hang>
    1080:	4585                	li	a1,1
    1082:	fc843503          	ld	a0,-56(s0)
    1086:	543030ef          	jal	4dc8 <sbi_dbtr_init>
    108a:	87aa                	mv	a5,a0
    108c:	fef42223          	sw	a5,-28(s0)
    1090:	fe442783          	lw	a5,-28(s0)
    1094:	2781                	sext.w	a5,a5
    1096:	c399                	beqz	a5,109c <init_coldboot+0x1c8>
    1098:	7c8180ef          	jal	19860 <sbi_hart_hang>
    109c:	fc843503          	ld	a0,-56(s0)
    10a0:	877ff0ef          	jal	916 <sbi_boot_print_banner>
    10a4:	4585                	li	a1,1
    10a6:	fc843503          	ld	a0,-56(s0)
    10aa:	2fa010ef          	jal	23a4 <sbi_irqchip_init>
    10ae:	87aa                	mv	a5,a0
    10b0:	fef42223          	sw	a5,-28(s0)
    10b4:	fe442783          	lw	a5,-28(s0)
    10b8:	2781                	sext.w	a5,a5
    10ba:	c385                	beqz	a5,10da <init_coldboot+0x206>
    10bc:	fe442783          	lw	a5,-28(s0)
    10c0:	863e                	mv	a2,a5
    10c2:	00032597          	auipc	a1,0x32
    10c6:	70658593          	addi	a1,a1,1798 # 337c8 <__func__.0>
    10ca:	00032517          	auipc	a0,0x32
    10ce:	59e50513          	addi	a0,a0,1438 # 33668 <_PROCEDURE_LINKAGE_TABLE_+0x1118>
    10d2:	0ab100ef          	jal	1197c <sbi_printf>
    10d6:	78a180ef          	jal	19860 <sbi_hart_hang>
    10da:	4585                	li	a1,1
    10dc:	fc843503          	ld	a0,-56(s0)
    10e0:	088010ef          	jal	2168 <sbi_ipi_init>
    10e4:	87aa                	mv	a5,a0
    10e6:	fef42223          	sw	a5,-28(s0)
    10ea:	fe442783          	lw	a5,-28(s0)
    10ee:	2781                	sext.w	a5,a5
    10f0:	c385                	beqz	a5,1110 <init_coldboot+0x23c>
    10f2:	fe442783          	lw	a5,-28(s0)
    10f6:	863e                	mv	a2,a5
    10f8:	00032597          	auipc	a1,0x32
    10fc:	6d058593          	addi	a1,a1,1744 # 337c8 <__func__.0>
    1100:	00032517          	auipc	a0,0x32
    1104:	59050513          	addi	a0,a0,1424 # 33690 <_PROCEDURE_LINKAGE_TABLE_+0x1140>
    1108:	075100ef          	jal	1197c <sbi_printf>
    110c:	754180ef          	jal	19860 <sbi_hart_hang>
    1110:	4585                	li	a1,1
    1112:	fc843503          	ld	a0,-56(s0)
    1116:	24b080ef          	jal	9b60 <sbi_tlb_init>
    111a:	87aa                	mv	a5,a0
    111c:	fef42223          	sw	a5,-28(s0)
    1120:	fe442783          	lw	a5,-28(s0)
    1124:	2781                	sext.w	a5,a5
    1126:	c385                	beqz	a5,1146 <init_coldboot+0x272>
    1128:	fe442783          	lw	a5,-28(s0)
    112c:	863e                	mv	a2,a5
    112e:	00032597          	auipc	a1,0x32
    1132:	69a58593          	addi	a1,a1,1690 # 337c8 <__func__.0>
    1136:	00032517          	auipc	a0,0x32
    113a:	57a50513          	addi	a0,a0,1402 # 336b0 <_PROCEDURE_LINKAGE_TABLE_+0x1160>
    113e:	03f100ef          	jal	1197c <sbi_printf>
    1142:	71e180ef          	jal	19860 <sbi_hart_hang>
    1146:	4585                	li	a1,1
    1148:	fc843503          	ld	a0,-56(s0)
    114c:	68b070ef          	jal	8fd6 <sbi_timer_init>
    1150:	87aa                	mv	a5,a0
    1152:	fef42223          	sw	a5,-28(s0)
    1156:	fe442783          	lw	a5,-28(s0)
    115a:	2781                	sext.w	a5,a5
    115c:	c385                	beqz	a5,117c <init_coldboot+0x2a8>
    115e:	fe442783          	lw	a5,-28(s0)
    1162:	863e                	mv	a2,a5
    1164:	00032597          	auipc	a1,0x32
    1168:	66458593          	addi	a1,a1,1636 # 337c8 <__func__.0>
    116c:	00032517          	auipc	a0,0x32
    1170:	56450513          	addi	a0,a0,1380 # 336d0 <_PROCEDURE_LINKAGE_TABLE_+0x1180>
    1174:	009100ef          	jal	1197c <sbi_printf>
    1178:	6e8180ef          	jal	19860 <sbi_hart_hang>
    117c:	4585                	li	a1,1
    117e:	fc843503          	ld	a0,-56(s0)
    1182:	5ac130ef          	jal	1472e <sbi_fwft_init>
    1186:	87aa                	mv	a5,a0
    1188:	fef42223          	sw	a5,-28(s0)
    118c:	fe442783          	lw	a5,-28(s0)
    1190:	2781                	sext.w	a5,a5
    1192:	c385                	beqz	a5,11b2 <init_coldboot+0x2de>
    1194:	fe442783          	lw	a5,-28(s0)
    1198:	863e                	mv	a2,a5
    119a:	00032597          	auipc	a1,0x32
    119e:	62e58593          	addi	a1,a1,1582 # 337c8 <__func__.0>
    11a2:	00032517          	auipc	a0,0x32
    11a6:	55650513          	addi	a0,a0,1366 # 336f8 <_PROCEDURE_LINKAGE_TABLE_+0x11a8>
    11aa:	7d2100ef          	jal	1197c <sbi_printf>
    11ae:	6b2180ef          	jal	19860 <sbi_hart_hang>
    11b2:	fc442783          	lw	a5,-60(s0)
    11b6:	85be                	mv	a1,a5
    11b8:	fc843503          	ld	a0,-56(s0)
    11bc:	4f6120ef          	jal	136b2 <sbi_domain_finalize>
    11c0:	87aa                	mv	a5,a0
    11c2:	fef42223          	sw	a5,-28(s0)
    11c6:	fe442783          	lw	a5,-28(s0)
    11ca:	2781                	sext.w	a5,a5
    11cc:	c385                	beqz	a5,11ec <init_coldboot+0x318>
    11ce:	fe442783          	lw	a5,-28(s0)
    11d2:	863e                	mv	a2,a5
    11d4:	00032597          	auipc	a1,0x32
    11d8:	5f458593          	addi	a1,a1,1524 # 337c8 <__func__.0>
    11dc:	00032517          	auipc	a0,0x32
    11e0:	54450513          	addi	a0,a0,1348 # 33720 <_PROCEDURE_LINKAGE_TABLE_+0x11d0>
    11e4:	798100ef          	jal	1197c <sbi_printf>
    11e8:	678180ef          	jal	19860 <sbi_hart_hang>
    11ec:	4585                	li	a1,1
    11ee:	fe843503          	ld	a0,-24(s0)
    11f2:	e82ff0ef          	jal	874 <sbi_platform_final_init>
    11f6:	87aa                	mv	a5,a0
    11f8:	fef42223          	sw	a5,-28(s0)
    11fc:	fe442783          	lw	a5,-28(s0)
    1200:	2781                	sext.w	a5,a5
    1202:	c385                	beqz	a5,1222 <init_coldboot+0x34e>
    1204:	fe442783          	lw	a5,-28(s0)
    1208:	863e                	mv	a2,a5
    120a:	00032597          	auipc	a1,0x32
    120e:	5be58593          	addi	a1,a1,1470 # 337c8 <__func__.0>
    1212:	00032517          	auipc	a0,0x32
    1216:	53650513          	addi	a0,a0,1334 # 33748 <_PROCEDURE_LINKAGE_TABLE_+0x11f8>
    121a:	762100ef          	jal	1197c <sbi_printf>
    121e:	642180ef          	jal	19860 <sbi_hart_hang>
    1222:	4a30e0ef          	jal	fec4 <sbi_ecall_init>
    1226:	87aa                	mv	a5,a0
    1228:	fef42223          	sw	a5,-28(s0)
    122c:	fe442783          	lw	a5,-28(s0)
    1230:	2781                	sext.w	a5,a5
    1232:	c385                	beqz	a5,1252 <init_coldboot+0x37e>
    1234:	fe442783          	lw	a5,-28(s0)
    1238:	863e                	mv	a2,a5
    123a:	00032597          	auipc	a1,0x32
    123e:	58e58593          	addi	a1,a1,1422 # 337c8 <__func__.0>
    1242:	00032517          	auipc	a0,0x32
    1246:	53650513          	addi	a0,a0,1334 # 33778 <_PROCEDURE_LINKAGE_TABLE_+0x1228>
    124a:	732100ef          	jal	1197c <sbi_printf>
    124e:	612180ef          	jal	19860 <sbi_hart_hang>
    1252:	fc843503          	ld	a0,-56(s0)
    1256:	efeff0ef          	jal	954 <sbi_boot_print_general>
    125a:	fc843503          	ld	a0,-56(s0)
    125e:	a2dff0ef          	jal	c8a <sbi_boot_print_domains>
    1262:	fc442783          	lw	a5,-60(s0)
    1266:	85be                	mv	a1,a5
    1268:	fc843503          	ld	a0,-56(s0)
    126c:	a4dff0ef          	jal	cb8 <sbi_boot_print_hart>
    1270:	fc843503          	ld	a0,-56(s0)
    1274:	5e0140ef          	jal	15854 <sbi_hart_pmp_configure>
    1278:	87aa                	mv	a5,a0
    127a:	fef42223          	sw	a5,-28(s0)
    127e:	fe442783          	lw	a5,-28(s0)
    1282:	2781                	sext.w	a5,a5
    1284:	c385                	beqz	a5,12a4 <init_coldboot+0x3d0>
    1286:	fe442783          	lw	a5,-28(s0)
    128a:	863e                	mv	a2,a5
    128c:	00032597          	auipc	a1,0x32
    1290:	53c58593          	addi	a1,a1,1340 # 337c8 <__func__.0>
    1294:	00032517          	auipc	a0,0x32
    1298:	50c50513          	addi	a0,a0,1292 # 337a0 <_PROCEDURE_LINKAGE_TABLE_+0x1250>
    129c:	6e0100ef          	jal	1197c <sbi_printf>
    12a0:	5c0180ef          	jal	19860 <sbi_hart_hang>
    12a4:	00082797          	auipc	a5,0x82
    12a8:	d6c78793          	addi	a5,a5,-660 # 83010 <init_count_offset>
    12ac:	639c                	ld	a5,0(a5)
    12ae:	fc843703          	ld	a4,-56(s0)
    12b2:	97ba                	add	a5,a5,a4
    12b4:	fcf43c23          	sd	a5,-40(s0)
    12b8:	fd843783          	ld	a5,-40(s0)
    12bc:	639c                	ld	a5,0(a5)
    12be:	00178713          	addi	a4,a5,1
    12c2:	fd843783          	ld	a5,-40(s0)
    12c6:	e398                	sd	a4,0(a5)
    12c8:	fc442783          	lw	a5,-60(s0)
    12cc:	85be                	mv	a1,a5
    12ce:	fc843503          	ld	a0,-56(s0)
    12d2:	4ba190ef          	jal	1a78c <sbi_hsm_hart_start_finish>

00000000000012d6 <init_warm_startup>:
    12d6:	7139                	addi	sp,sp,-64
    12d8:	fc06                	sd	ra,56(sp)
    12da:	f822                	sd	s0,48(sp)
    12dc:	0080                	addi	s0,sp,64
    12de:	fca43423          	sd	a0,-56(s0)
    12e2:	87ae                	mv	a5,a1
    12e4:	fcf42223          	sw	a5,-60(s0)
    12e8:	fc843783          	ld	a5,-56(s0)
    12ec:	67bc                	ld	a5,72(a5)
    12ee:	fef43423          	sd	a5,-24(s0)
    12f2:	00082797          	auipc	a5,0x82
    12f6:	d1678793          	addi	a5,a5,-746 # 83008 <entry_count_offset>
    12fa:	639c                	ld	a5,0(a5)
    12fc:	c799                	beqz	a5,130a <init_warm_startup+0x34>
    12fe:	00082797          	auipc	a5,0x82
    1302:	d1278793          	addi	a5,a5,-750 # 83010 <init_count_offset>
    1306:	639c                	ld	a5,0(a5)
    1308:	e399                	bnez	a5,130e <init_warm_startup+0x38>
    130a:	556180ef          	jal	19860 <sbi_hart_hang>
    130e:	00082797          	auipc	a5,0x82
    1312:	cfa78793          	addi	a5,a5,-774 # 83008 <entry_count_offset>
    1316:	639c                	ld	a5,0(a5)
    1318:	fc843703          	ld	a4,-56(s0)
    131c:	97ba                	add	a5,a5,a4
    131e:	fef43023          	sd	a5,-32(s0)
    1322:	fe043783          	ld	a5,-32(s0)
    1326:	639c                	ld	a5,0(a5)
    1328:	00178713          	addi	a4,a5,1
    132c:	fe043783          	ld	a5,-32(s0)
    1330:	e398                	sd	a4,0(a5)
    1332:	fc442783          	lw	a5,-60(s0)
    1336:	4601                	li	a2,0
    1338:	85be                	mv	a1,a5
    133a:	fc843503          	ld	a0,-56(s0)
    133e:	750190ef          	jal	1aa8e <sbi_hsm_init>
    1342:	87aa                	mv	a5,a0
    1344:	fcf42e23          	sw	a5,-36(s0)
    1348:	fdc42783          	lw	a5,-36(s0)
    134c:	2781                	sext.w	a5,a5
    134e:	c399                	beqz	a5,1354 <init_warm_startup+0x7e>
    1350:	510180ef          	jal	19860 <sbi_hart_hang>
    1354:	4581                	li	a1,0
    1356:	fe843503          	ld	a0,-24(s0)
    135a:	cd8ff0ef          	jal	832 <sbi_platform_early_init>
    135e:	87aa                	mv	a5,a0
    1360:	fcf42e23          	sw	a5,-36(s0)
    1364:	fdc42783          	lw	a5,-36(s0)
    1368:	2781                	sext.w	a5,a5
    136a:	c399                	beqz	a5,1370 <init_warm_startup+0x9a>
    136c:	4f4180ef          	jal	19860 <sbi_hart_hang>
    1370:	4581                	li	a1,0
    1372:	fc843503          	ld	a0,-56(s0)
    1376:	450180ef          	jal	197c6 <sbi_hart_init>
    137a:	87aa                	mv	a5,a0
    137c:	fcf42e23          	sw	a5,-36(s0)
    1380:	fdc42783          	lw	a5,-36(s0)
    1384:	2781                	sext.w	a5,a5
    1386:	c399                	beqz	a5,138c <init_warm_startup+0xb6>
    1388:	4d8180ef          	jal	19860 <sbi_hart_hang>
    138c:	4581                	li	a1,0
    138e:	fc843503          	ld	a0,-56(s0)
    1392:	1cd060ef          	jal	7d5e <sbi_sse_init>
    1396:	87aa                	mv	a5,a0
    1398:	fcf42e23          	sw	a5,-36(s0)
    139c:	fdc42783          	lw	a5,-36(s0)
    13a0:	2781                	sext.w	a5,a5
    13a2:	c399                	beqz	a5,13a8 <init_warm_startup+0xd2>
    13a4:	4bc180ef          	jal	19860 <sbi_hart_hang>
    13a8:	4581                	li	a1,0
    13aa:	fc843503          	ld	a0,-56(s0)
    13ae:	4c8030ef          	jal	4876 <sbi_pmu_init>
    13b2:	87aa                	mv	a5,a0
    13b4:	fcf42e23          	sw	a5,-36(s0)
    13b8:	fdc42783          	lw	a5,-36(s0)
    13bc:	2781                	sext.w	a5,a5
    13be:	c399                	beqz	a5,13c4 <init_warm_startup+0xee>
    13c0:	4a0180ef          	jal	19860 <sbi_hart_hang>
    13c4:	4581                	li	a1,0
    13c6:	fc843503          	ld	a0,-56(s0)
    13ca:	1ff030ef          	jal	4dc8 <sbi_dbtr_init>
    13ce:	87aa                	mv	a5,a0
    13d0:	fcf42e23          	sw	a5,-36(s0)
    13d4:	fdc42783          	lw	a5,-36(s0)
    13d8:	2781                	sext.w	a5,a5
    13da:	c399                	beqz	a5,13e0 <init_warm_startup+0x10a>
    13dc:	484180ef          	jal	19860 <sbi_hart_hang>
    13e0:	4581                	li	a1,0
    13e2:	fc843503          	ld	a0,-56(s0)
    13e6:	7bf000ef          	jal	23a4 <sbi_irqchip_init>
    13ea:	87aa                	mv	a5,a0
    13ec:	fcf42e23          	sw	a5,-36(s0)
    13f0:	fdc42783          	lw	a5,-36(s0)
    13f4:	2781                	sext.w	a5,a5
    13f6:	c399                	beqz	a5,13fc <init_warm_startup+0x126>
    13f8:	468180ef          	jal	19860 <sbi_hart_hang>
    13fc:	4581                	li	a1,0
    13fe:	fc843503          	ld	a0,-56(s0)
    1402:	567000ef          	jal	2168 <sbi_ipi_init>
    1406:	87aa                	mv	a5,a0
    1408:	fcf42e23          	sw	a5,-36(s0)
    140c:	fdc42783          	lw	a5,-36(s0)
    1410:	2781                	sext.w	a5,a5
    1412:	c399                	beqz	a5,1418 <init_warm_startup+0x142>
    1414:	44c180ef          	jal	19860 <sbi_hart_hang>
    1418:	4581                	li	a1,0
    141a:	fc843503          	ld	a0,-56(s0)
    141e:	742080ef          	jal	9b60 <sbi_tlb_init>
    1422:	87aa                	mv	a5,a0
    1424:	fcf42e23          	sw	a5,-36(s0)
    1428:	fdc42783          	lw	a5,-36(s0)
    142c:	2781                	sext.w	a5,a5
    142e:	c399                	beqz	a5,1434 <init_warm_startup+0x15e>
    1430:	430180ef          	jal	19860 <sbi_hart_hang>
    1434:	4581                	li	a1,0
    1436:	fc843503          	ld	a0,-56(s0)
    143a:	39d070ef          	jal	8fd6 <sbi_timer_init>
    143e:	87aa                	mv	a5,a0
    1440:	fcf42e23          	sw	a5,-36(s0)
    1444:	fdc42783          	lw	a5,-36(s0)
    1448:	2781                	sext.w	a5,a5
    144a:	c399                	beqz	a5,1450 <init_warm_startup+0x17a>
    144c:	414180ef          	jal	19860 <sbi_hart_hang>
    1450:	4581                	li	a1,0
    1452:	fc843503          	ld	a0,-56(s0)
    1456:	2d8130ef          	jal	1472e <sbi_fwft_init>
    145a:	87aa                	mv	a5,a0
    145c:	fcf42e23          	sw	a5,-36(s0)
    1460:	fdc42783          	lw	a5,-36(s0)
    1464:	2781                	sext.w	a5,a5
    1466:	c399                	beqz	a5,146c <init_warm_startup+0x196>
    1468:	3f8180ef          	jal	19860 <sbi_hart_hang>
    146c:	4581                	li	a1,0
    146e:	fe843503          	ld	a0,-24(s0)
    1472:	c02ff0ef          	jal	874 <sbi_platform_final_init>
    1476:	87aa                	mv	a5,a0
    1478:	fcf42e23          	sw	a5,-36(s0)
    147c:	fdc42783          	lw	a5,-36(s0)
    1480:	2781                	sext.w	a5,a5
    1482:	c399                	beqz	a5,1488 <init_warm_startup+0x1b2>
    1484:	3dc180ef          	jal	19860 <sbi_hart_hang>
    1488:	fc843503          	ld	a0,-56(s0)
    148c:	3c8140ef          	jal	15854 <sbi_hart_pmp_configure>
    1490:	87aa                	mv	a5,a0
    1492:	fcf42e23          	sw	a5,-36(s0)
    1496:	fdc42783          	lw	a5,-36(s0)
    149a:	2781                	sext.w	a5,a5
    149c:	c399                	beqz	a5,14a2 <init_warm_startup+0x1cc>
    149e:	3c2180ef          	jal	19860 <sbi_hart_hang>
    14a2:	00082797          	auipc	a5,0x82
    14a6:	b6e78793          	addi	a5,a5,-1170 # 83010 <init_count_offset>
    14aa:	639c                	ld	a5,0(a5)
    14ac:	fc843703          	ld	a4,-56(s0)
    14b0:	97ba                	add	a5,a5,a4
    14b2:	fef43023          	sd	a5,-32(s0)
    14b6:	fe043783          	ld	a5,-32(s0)
    14ba:	639c                	ld	a5,0(a5)
    14bc:	00178713          	addi	a4,a5,1
    14c0:	fe043783          	ld	a5,-32(s0)
    14c4:	e398                	sd	a4,0(a5)
    14c6:	fc442783          	lw	a5,-60(s0)
    14ca:	85be                	mv	a1,a5
    14cc:	fc843503          	ld	a0,-56(s0)
    14d0:	2bc190ef          	jal	1a78c <sbi_hsm_hart_start_finish>

00000000000014d4 <init_warm_resume>:
    14d4:	7179                	addi	sp,sp,-48
    14d6:	f406                	sd	ra,40(sp)
    14d8:	f022                	sd	s0,32(sp)
    14da:	1800                	addi	s0,sp,48
    14dc:	fca43c23          	sd	a0,-40(s0)
    14e0:	87ae                	mv	a5,a1
    14e2:	fcf42a23          	sw	a5,-44(s0)
    14e6:	fd843503          	ld	a0,-40(s0)
    14ea:	341190ef          	jal	1b02a <sbi_hsm_hart_resume_start>
    14ee:	fd843503          	ld	a0,-40(s0)
    14f2:	27c180ef          	jal	1976e <sbi_hart_reinit>
    14f6:	87aa                	mv	a5,a0
    14f8:	fef42623          	sw	a5,-20(s0)
    14fc:	fec42783          	lw	a5,-20(s0)
    1500:	2781                	sext.w	a5,a5
    1502:	c399                	beqz	a5,1508 <init_warm_resume+0x34>
    1504:	35c180ef          	jal	19860 <sbi_hart_hang>
    1508:	fd843503          	ld	a0,-40(s0)
    150c:	348140ef          	jal	15854 <sbi_hart_pmp_configure>
    1510:	87aa                	mv	a5,a0
    1512:	fef42623          	sw	a5,-20(s0)
    1516:	fec42783          	lw	a5,-20(s0)
    151a:	2781                	sext.w	a5,a5
    151c:	c399                	beqz	a5,1522 <init_warm_resume+0x4e>
    151e:	342180ef          	jal	19860 <sbi_hart_hang>
    1522:	fd442783          	lw	a5,-44(s0)
    1526:	85be                	mv	a1,a5
    1528:	fd843503          	ld	a0,-40(s0)
    152c:	377190ef          	jal	1b0a2 <sbi_hsm_hart_resume_finish>

0000000000001530 <init_warmboot>:
    1530:	7179                	addi	sp,sp,-48
    1532:	f406                	sd	ra,40(sp)
    1534:	f022                	sd	s0,32(sp)
    1536:	1800                	addi	s0,sp,48
    1538:	fca43c23          	sd	a0,-40(s0)
    153c:	87ae                	mv	a5,a1
    153e:	fcf42a23          	sw	a5,-44(s0)
    1542:	fd442783          	lw	a5,-44(s0)
    1546:	85be                	mv	a1,a5
    1548:	fd843503          	ld	a0,-40(s0)
    154c:	925ff0ef          	jal	e70 <wait_for_coldboot>
    1550:	f14027f3          	csrr	a5,mhartid
    1554:	80be                	mv	ra,a5
    1556:	8786                	mv	a5,ra
    1558:	2781                	sext.w	a5,a5
    155a:	853e                	mv	a0,a5
    155c:	2c5040ef          	jal	6020 <sbi_hartid_to_hartindex>
    1560:	87aa                	mv	a5,a0
    1562:	2781                	sext.w	a5,a5
    1564:	853e                	mv	a0,a5
    1566:	1f3100ef          	jal	11f58 <sbi_hartindex_to_domain>
    156a:	872a                	mv	a4,a0
    156c:	fd442783          	lw	a5,-44(s0)
    1570:	85be                	mv	a1,a5
    1572:	853a                	mv	a0,a4
    1574:	08e190ef          	jal	1a602 <sbi_hsm_hart_get_state>
    1578:	87aa                	mv	a5,a0
    157a:	fef42623          	sw	a5,-20(s0)
    157e:	fec42783          	lw	a5,-20(s0)
    1582:	2781                	sext.w	a5,a5
    1584:	0007d463          	bgez	a5,158c <init_warmboot+0x5c>
    1588:	2d8180ef          	jal	19860 <sbi_hart_hang>
    158c:	fec42783          	lw	a5,-20(s0)
    1590:	0007871b          	sext.w	a4,a5
    1594:	4791                	li	a5,4
    1596:	00f71963          	bne	a4,a5,15a8 <init_warmboot+0x78>
    159a:	fd442783          	lw	a5,-44(s0)
    159e:	85be                	mv	a1,a5
    15a0:	fd843503          	ld	a0,-40(s0)
    15a4:	f31ff0ef          	jal	14d4 <init_warm_resume>
    15a8:	fd442783          	lw	a5,-44(s0)
    15ac:	853e                	mv	a0,a5
    15ae:	273040ef          	jal	6020 <sbi_hartid_to_hartindex>
    15b2:	87aa                	mv	a5,a0
    15b4:	2781                	sext.w	a5,a5
    15b6:	853e                	mv	a0,a5
    15b8:	31b000ef          	jal	20d2 <sbi_ipi_raw_clear>
    15bc:	fd442783          	lw	a5,-44(s0)
    15c0:	85be                	mv	a1,a5
    15c2:	fd843503          	ld	a0,-40(s0)
    15c6:	d11ff0ef          	jal	12d6 <init_warm_startup>

00000000000015ca <sbi_init>:
    15ca:	715d                	addi	sp,sp,-80
    15cc:	e486                	sd	ra,72(sp)
    15ce:	e0a2                	sd	s0,64(sp)
    15d0:	0880                	addi	s0,sp,80
    15d2:	faa43c23          	sd	a0,-72(s0)
    15d6:	fe042423          	sw	zero,-24(s0)
    15da:	fe042223          	sw	zero,-28(s0)
    15de:	fe042023          	sw	zero,-32(s0)
    15e2:	f14027f3          	csrr	a5,mhartid
    15e6:	80be                	mv	ra,a5
    15e8:	8786                	mv	a5,ra
    15ea:	fcf42e23          	sw	a5,-36(s0)
    15ee:	fb843783          	ld	a5,-72(s0)
    15f2:	67bc                	ld	a5,72(a5)
    15f4:	fcf43823          	sd	a5,-48(s0)
    15f8:	fe042623          	sw	zero,-20(s0)
    15fc:	a099                	j	1642 <sbi_init+0x78>
    15fe:	fd043783          	ld	a5,-48(s0)
    1602:	7bbc                	ld	a5,112(a5)
    1604:	cb91                	beqz	a5,1618 <sbi_init+0x4e>
    1606:	fd043783          	ld	a5,-48(s0)
    160a:	7bb8                	ld	a4,112(a5)
    160c:	fec46783          	lwu	a5,-20(s0)
    1610:	078a                	slli	a5,a5,0x2
    1612:	97ba                	add	a5,a5,a4
    1614:	439c                	lw	a5,0(a5)
    1616:	a019                	j	161c <sbi_init+0x52>
    1618:	fec42783          	lw	a5,-20(s0)
    161c:	fcf42623          	sw	a5,-52(s0)
    1620:	fcc42783          	lw	a5,-52(s0)
    1624:	873e                	mv	a4,a5
    1626:	fdc42783          	lw	a5,-36(s0)
    162a:	2701                	sext.w	a4,a4
    162c:	2781                	sext.w	a5,a5
    162e:	00f71563          	bne	a4,a5,1638 <sbi_init+0x6e>
    1632:	4785                	li	a5,1
    1634:	fef42423          	sw	a5,-24(s0)
    1638:	fec42783          	lw	a5,-20(s0)
    163c:	2785                	addiw	a5,a5,1
    163e:	fef42623          	sw	a5,-20(s0)
    1642:	fd043783          	ld	a5,-48(s0)
    1646:	4bb8                	lw	a4,80(a5)
    1648:	fec42783          	lw	a5,-20(s0)
    164c:	2781                	sext.w	a5,a5
    164e:	fae7e8e3          	bltu	a5,a4,15fe <sbi_init+0x34>
    1652:	fe842783          	lw	a5,-24(s0)
    1656:	2781                	sext.w	a5,a5
    1658:	e399                	bnez	a5,165e <sbi_init+0x94>
    165a:	206180ef          	jal	19860 <sbi_hart_hang>
    165e:	fb843783          	ld	a5,-72(s0)
    1662:	7f9c                	ld	a5,56(a5)
    1664:	470d                	li	a4,3
    1666:	00e78a63          	beq	a5,a4,167a <sbi_init+0xb0>
    166a:	470d                	li	a4,3
    166c:	02f76f63          	bltu	a4,a5,16aa <sbi_init+0xe0>
    1670:	c39d                	beqz	a5,1696 <sbi_init+0xcc>
    1672:	4705                	li	a4,1
    1674:	00e78763          	beq	a5,a4,1682 <sbi_init+0xb8>
    1678:	a80d                	j	16aa <sbi_init+0xe0>
    167a:	4785                	li	a5,1
    167c:	fef42223          	sw	a5,-28(s0)
    1680:	a815                	j	16b4 <sbi_init+0xea>
    1682:	05300513          	li	a0,83
    1686:	7e90b0ef          	jal	d66e <misa_extension_imp>
    168a:	87aa                	mv	a5,a0
    168c:	c38d                	beqz	a5,16ae <sbi_init+0xe4>
    168e:	4785                	li	a5,1
    1690:	fef42223          	sw	a5,-28(s0)
    1694:	a829                	j	16ae <sbi_init+0xe4>
    1696:	05500513          	li	a0,85
    169a:	7d50b0ef          	jal	d66e <misa_extension_imp>
    169e:	87aa                	mv	a5,a0
    16a0:	cb89                	beqz	a5,16b2 <sbi_init+0xe8>
    16a2:	4785                	li	a5,1
    16a4:	fef42223          	sw	a5,-28(s0)
    16a8:	a029                	j	16b2 <sbi_init+0xe8>
    16aa:	1b6180ef          	jal	19860 <sbi_hart_hang>
    16ae:	0001                	nop
    16b0:	a011                	j	16b4 <sbi_init+0xea>
    16b2:	0001                	nop
    16b4:	fdc42783          	lw	a5,-36(s0)
    16b8:	85be                	mv	a1,a5
    16ba:	fd043503          	ld	a0,-48(s0)
    16be:	8fcff0ef          	jal	7ba <sbi_platform_cold_boot_allowed>
    16c2:	87aa                	mv	a5,a0
    16c4:	c38d                	beqz	a5,16e6 <sbi_init+0x11c>
    16c6:	fe442783          	lw	a5,-28(s0)
    16ca:	2781                	sext.w	a5,a5
    16cc:	cf89                	beqz	a5,16e6 <sbi_init+0x11c>
    16ce:	4585                	li	a1,1
    16d0:	00082517          	auipc	a0,0x82
    16d4:	94850513          	addi	a0,a0,-1720 # 83018 <coldboot_lottery>
    16d8:	45d0d0ef          	jal	f334 <atomic_xchg>
    16dc:	87aa                	mv	a5,a0
    16de:	e781                	bnez	a5,16e6 <sbi_init+0x11c>
    16e0:	4785                	li	a5,1
    16e2:	fef42023          	sw	a5,-32(s0)
    16e6:	fd043503          	ld	a0,-48(s0)
    16ea:	912ff0ef          	jal	7fc <sbi_platform_nascent_init>
    16ee:	87aa                	mv	a5,a0
    16f0:	c399                	beqz	a5,16f6 <sbi_init+0x12c>
    16f2:	16e180ef          	jal	19860 <sbi_hart_hang>
    16f6:	fe042783          	lw	a5,-32(s0)
    16fa:	2781                	sext.w	a5,a5
    16fc:	cb81                	beqz	a5,170c <sbi_init+0x142>
    16fe:	fdc42783          	lw	a5,-36(s0)
    1702:	85be                	mv	a1,a5
    1704:	fb843503          	ld	a0,-72(s0)
    1708:	fccff0ef          	jal	ed4 <init_coldboot>
    170c:	fdc42783          	lw	a5,-36(s0)
    1710:	85be                	mv	a1,a5
    1712:	fb843503          	ld	a0,-72(s0)
    1716:	e1bff0ef          	jal	1530 <init_warmboot>

000000000000171a <sbi_entry_count>:
    171a:	7179                	addi	sp,sp,-48
    171c:	f406                	sd	ra,40(sp)
    171e:	f022                	sd	s0,32(sp)
    1720:	1800                	addi	s0,sp,48
    1722:	87aa                	mv	a5,a0
    1724:	fcf42e23          	sw	a5,-36(s0)
    1728:	00082797          	auipc	a5,0x82
    172c:	8e078793          	addi	a5,a5,-1824 # 83008 <entry_count_offset>
    1730:	639c                	ld	a5,0(a5)
    1732:	e399                	bnez	a5,1738 <sbi_entry_count+0x1e>
    1734:	4781                	li	a5,0
    1736:	a0b5                	j	17a2 <sbi_entry_count+0x88>
    1738:	fdc42783          	lw	a5,-36(s0)
    173c:	853e                	mv	a0,a5
    173e:	0e3040ef          	jal	6020 <sbi_hartid_to_hartindex>
    1742:	87aa                	mv	a5,a0
    1744:	0007871b          	sext.w	a4,a5
    1748:	00081797          	auipc	a5,0x81
    174c:	c887b783          	ld	a5,-888(a5) # 823d0 <_GLOBAL_OFFSET_TABLE_+0x18>
    1750:	439c                	lw	a5,0(a5)
    1752:	02e7e363          	bltu	a5,a4,1778 <sbi_entry_count+0x5e>
    1756:	fdc42783          	lw	a5,-36(s0)
    175a:	853e                	mv	a0,a5
    175c:	0c5040ef          	jal	6020 <sbi_hartid_to_hartindex>
    1760:	87aa                	mv	a5,a0
    1762:	2781                	sext.w	a5,a5
    1764:	00081717          	auipc	a4,0x81
    1768:	d1c73703          	ld	a4,-740(a4) # 82480 <_GLOBAL_OFFSET_TABLE_+0xc8>
    176c:	1782                	slli	a5,a5,0x20
    176e:	9381                	srli	a5,a5,0x20
    1770:	078e                	slli	a5,a5,0x3
    1772:	97ba                	add	a5,a5,a4
    1774:	639c                	ld	a5,0(a5)
    1776:	a011                	j	177a <sbi_entry_count+0x60>
    1778:	4781                	li	a5,0
    177a:	fef43423          	sd	a5,-24(s0)
    177e:	fe843783          	ld	a5,-24(s0)
    1782:	e399                	bnez	a5,1788 <sbi_entry_count+0x6e>
    1784:	4781                	li	a5,0
    1786:	a831                	j	17a2 <sbi_entry_count+0x88>
    1788:	00082797          	auipc	a5,0x82
    178c:	88078793          	addi	a5,a5,-1920 # 83008 <entry_count_offset>
    1790:	639c                	ld	a5,0(a5)
    1792:	fe843703          	ld	a4,-24(s0)
    1796:	97ba                	add	a5,a5,a4
    1798:	fef43023          	sd	a5,-32(s0)
    179c:	fe043783          	ld	a5,-32(s0)
    17a0:	639c                	ld	a5,0(a5)
    17a2:	853e                	mv	a0,a5
    17a4:	70a2                	ld	ra,40(sp)
    17a6:	7402                	ld	s0,32(sp)
    17a8:	6145                	addi	sp,sp,48
    17aa:	8082                	ret

00000000000017ac <sbi_init_count>:
    17ac:	7179                	addi	sp,sp,-48
    17ae:	f406                	sd	ra,40(sp)
    17b0:	f022                	sd	s0,32(sp)
    17b2:	1800                	addi	s0,sp,48
    17b4:	87aa                	mv	a5,a0
    17b6:	fcf42e23          	sw	a5,-36(s0)
    17ba:	00082797          	auipc	a5,0x82
    17be:	85678793          	addi	a5,a5,-1962 # 83010 <init_count_offset>
    17c2:	639c                	ld	a5,0(a5)
    17c4:	e399                	bnez	a5,17ca <sbi_init_count+0x1e>
    17c6:	4781                	li	a5,0
    17c8:	a0b5                	j	1834 <sbi_init_count+0x88>
    17ca:	fdc42783          	lw	a5,-36(s0)
    17ce:	853e                	mv	a0,a5
    17d0:	051040ef          	jal	6020 <sbi_hartid_to_hartindex>
    17d4:	87aa                	mv	a5,a0
    17d6:	0007871b          	sext.w	a4,a5
    17da:	00081797          	auipc	a5,0x81
    17de:	bf67b783          	ld	a5,-1034(a5) # 823d0 <_GLOBAL_OFFSET_TABLE_+0x18>
    17e2:	439c                	lw	a5,0(a5)
    17e4:	02e7e363          	bltu	a5,a4,180a <sbi_init_count+0x5e>
    17e8:	fdc42783          	lw	a5,-36(s0)
    17ec:	853e                	mv	a0,a5
    17ee:	033040ef          	jal	6020 <sbi_hartid_to_hartindex>
    17f2:	87aa                	mv	a5,a0
    17f4:	2781                	sext.w	a5,a5
    17f6:	00081717          	auipc	a4,0x81
    17fa:	c8a73703          	ld	a4,-886(a4) # 82480 <_GLOBAL_OFFSET_TABLE_+0xc8>
    17fe:	1782                	slli	a5,a5,0x20
    1800:	9381                	srli	a5,a5,0x20
    1802:	078e                	slli	a5,a5,0x3
    1804:	97ba                	add	a5,a5,a4
    1806:	639c                	ld	a5,0(a5)
    1808:	a011                	j	180c <sbi_init_count+0x60>
    180a:	4781                	li	a5,0
    180c:	fef43423          	sd	a5,-24(s0)
    1810:	fe843783          	ld	a5,-24(s0)
    1814:	e399                	bnez	a5,181a <sbi_init_count+0x6e>
    1816:	4781                	li	a5,0
    1818:	a831                	j	1834 <sbi_init_count+0x88>
    181a:	00081797          	auipc	a5,0x81
    181e:	7f678793          	addi	a5,a5,2038 # 83010 <init_count_offset>
    1822:	639c                	ld	a5,0(a5)
    1824:	fe843703          	ld	a4,-24(s0)
    1828:	97ba                	add	a5,a5,a4
    182a:	fef43023          	sd	a5,-32(s0)
    182e:	fe043783          	ld	a5,-32(s0)
    1832:	639c                	ld	a5,0(a5)
    1834:	853e                	mv	a0,a5
    1836:	70a2                	ld	ra,40(sp)
    1838:	7402                	ld	s0,32(sp)
    183a:	6145                	addi	sp,sp,48
    183c:	8082                	ret

000000000000183e <sbi_exit>:
    183e:	7179                	addi	sp,sp,-48
    1840:	f406                	sd	ra,40(sp)
    1842:	f022                	sd	s0,32(sp)
    1844:	1800                	addi	s0,sp,48
    1846:	fca43c23          	sd	a0,-40(s0)
    184a:	f14027f3          	csrr	a5,mhartid
    184e:	80be                	mv	ra,a5
    1850:	8786                	mv	a5,ra
    1852:	fef42623          	sw	a5,-20(s0)
    1856:	fd843783          	ld	a5,-40(s0)
    185a:	67bc                	ld	a5,72(a5)
    185c:	fef43023          	sd	a5,-32(s0)
    1860:	fec42783          	lw	a5,-20(s0)
    1864:	853e                	mv	a0,a5
    1866:	7ba040ef          	jal	6020 <sbi_hartid_to_hartindex>
    186a:	87aa                	mv	a5,a0
    186c:	0007871b          	sext.w	a4,a5
    1870:	00081797          	auipc	a5,0x81
    1874:	b607b783          	ld	a5,-1184(a5) # 823d0 <_GLOBAL_OFFSET_TABLE_+0x18>
    1878:	439c                	lw	a5,0(a5)
    187a:	00e7f463          	bgeu	a5,a4,1882 <sbi_exit+0x44>
    187e:	7e3170ef          	jal	19860 <sbi_hart_hang>
    1882:	fe043503          	ld	a0,-32(s0)
    1886:	830ff0ef          	jal	8b6 <sbi_platform_early_exit>
    188a:	fd843503          	ld	a0,-40(s0)
    188e:	6a2060ef          	jal	7f30 <sbi_sse_exit>
    1892:	fd843503          	ld	a0,-40(s0)
    1896:	639020ef          	jal	46ce <sbi_pmu_exit>
    189a:	fd843503          	ld	a0,-40(s0)
    189e:	7ea070ef          	jal	9088 <sbi_timer_exit>
    18a2:	fd843503          	ld	a0,-40(s0)
    18a6:	201000ef          	jal	22a6 <sbi_ipi_exit>
    18aa:	fd843503          	ld	a0,-40(s0)
    18ae:	369000ef          	jal	2416 <sbi_irqchip_exit>
    18b2:	fe043503          	ld	a0,-32(s0)
    18b6:	830ff0ef          	jal	8e6 <sbi_platform_final_exit>
    18ba:	fd843503          	ld	a0,-40(s0)
    18be:	2ec190ef          	jal	1abaa <sbi_hsm_exit>

00000000000018c2 <__set_bit>:
    18c2:	7179                	addi	sp,sp,-48
    18c4:	f422                	sd	s0,40(sp)
    18c6:	1800                	addi	s0,sp,48
    18c8:	87aa                	mv	a5,a0
    18ca:	fcb43823          	sd	a1,-48(s0)
    18ce:	fcf42e23          	sw	a5,-36(s0)
    18d2:	fdc42783          	lw	a5,-36(s0)
    18d6:	03f7f793          	andi	a5,a5,63
    18da:	2781                	sext.w	a5,a5
    18dc:	873e                	mv	a4,a5
    18de:	4785                	li	a5,1
    18e0:	00e797b3          	sll	a5,a5,a4
    18e4:	fef43423          	sd	a5,-24(s0)
    18e8:	fdc42783          	lw	a5,-36(s0)
    18ec:	41f7d71b          	sraiw	a4,a5,0x1f
    18f0:	01a7571b          	srliw	a4,a4,0x1a
    18f4:	9fb9                	addw	a5,a5,a4
    18f6:	4067d79b          	sraiw	a5,a5,0x6
    18fa:	2781                	sext.w	a5,a5
    18fc:	078e                	slli	a5,a5,0x3
    18fe:	fd043703          	ld	a4,-48(s0)
    1902:	97ba                	add	a5,a5,a4
    1904:	fef43023          	sd	a5,-32(s0)
    1908:	fe043783          	ld	a5,-32(s0)
    190c:	6398                	ld	a4,0(a5)
    190e:	fe843783          	ld	a5,-24(s0)
    1912:	8f5d                	or	a4,a4,a5
    1914:	fe043783          	ld	a5,-32(s0)
    1918:	e398                	sd	a4,0(a5)
    191a:	0001                	nop
    191c:	7422                	ld	s0,40(sp)
    191e:	6145                	addi	sp,sp,48
    1920:	8082                	ret

0000000000001922 <__clear_bit>:
    1922:	7179                	addi	sp,sp,-48
    1924:	f422                	sd	s0,40(sp)
    1926:	1800                	addi	s0,sp,48
    1928:	87aa                	mv	a5,a0
    192a:	fcb43823          	sd	a1,-48(s0)
    192e:	fcf42e23          	sw	a5,-36(s0)
    1932:	fdc42783          	lw	a5,-36(s0)
    1936:	03f7f793          	andi	a5,a5,63
    193a:	2781                	sext.w	a5,a5
    193c:	873e                	mv	a4,a5
    193e:	4785                	li	a5,1
    1940:	00e797b3          	sll	a5,a5,a4
    1944:	fef43423          	sd	a5,-24(s0)
    1948:	fdc42783          	lw	a5,-36(s0)
    194c:	41f7d71b          	sraiw	a4,a5,0x1f
    1950:	01a7571b          	srliw	a4,a4,0x1a
    1954:	9fb9                	addw	a5,a5,a4
    1956:	4067d79b          	sraiw	a5,a5,0x6
    195a:	2781                	sext.w	a5,a5
    195c:	078e                	slli	a5,a5,0x3
    195e:	fd043703          	ld	a4,-48(s0)
    1962:	97ba                	add	a5,a5,a4
    1964:	fef43023          	sd	a5,-32(s0)
    1968:	fe043783          	ld	a5,-32(s0)
    196c:	6398                	ld	a4,0(a5)
    196e:	fe843783          	ld	a5,-24(s0)
    1972:	fff7c793          	not	a5,a5
    1976:	8f7d                	and	a4,a4,a5
    1978:	fe043783          	ld	a5,-32(s0)
    197c:	e398                	sd	a4,0(a5)
    197e:	0001                	nop
    1980:	7422                	ld	s0,40(sp)
    1982:	6145                	addi	sp,sp,48
    1984:	8082                	ret

0000000000001986 <sbi_hartmask_set_hartindex>:
    1986:	1101                	addi	sp,sp,-32
    1988:	ec06                	sd	ra,24(sp)
    198a:	e822                	sd	s0,16(sp)
    198c:	1000                	addi	s0,sp,32
    198e:	87aa                	mv	a5,a0
    1990:	feb43023          	sd	a1,-32(s0)
    1994:	fef42623          	sw	a5,-20(s0)
    1998:	fec42783          	lw	a5,-20(s0)
    199c:	0007871b          	sext.w	a4,a5
    19a0:	07f00793          	li	a5,127
    19a4:	00e7ea63          	bltu	a5,a4,19b8 <sbi_hartmask_set_hartindex+0x32>
    19a8:	fec42783          	lw	a5,-20(s0)
    19ac:	fe043703          	ld	a4,-32(s0)
    19b0:	85ba                	mv	a1,a4
    19b2:	853e                	mv	a0,a5
    19b4:	f0fff0ef          	jal	18c2 <__set_bit>
    19b8:	0001                	nop
    19ba:	60e2                	ld	ra,24(sp)
    19bc:	6442                	ld	s0,16(sp)
    19be:	6105                	addi	sp,sp,32
    19c0:	8082                	ret

00000000000019c2 <sbi_hartmask_set_hartid>:
    19c2:	1101                	addi	sp,sp,-32
    19c4:	ec06                	sd	ra,24(sp)
    19c6:	e822                	sd	s0,16(sp)
    19c8:	1000                	addi	s0,sp,32
    19ca:	87aa                	mv	a5,a0
    19cc:	feb43023          	sd	a1,-32(s0)
    19d0:	fef42623          	sw	a5,-20(s0)
    19d4:	fec42783          	lw	a5,-20(s0)
    19d8:	853e                	mv	a0,a5
    19da:	646040ef          	jal	6020 <sbi_hartid_to_hartindex>
    19de:	87aa                	mv	a5,a0
    19e0:	2781                	sext.w	a5,a5
    19e2:	fe043583          	ld	a1,-32(s0)
    19e6:	853e                	mv	a0,a5
    19e8:	f9fff0ef          	jal	1986 <sbi_hartmask_set_hartindex>
    19ec:	0001                	nop
    19ee:	60e2                	ld	ra,24(sp)
    19f0:	6442                	ld	s0,16(sp)
    19f2:	6105                	addi	sp,sp,32
    19f4:	8082                	ret

00000000000019f6 <sbi_hartmask_clear_hartindex>:
    19f6:	1101                	addi	sp,sp,-32
    19f8:	ec06                	sd	ra,24(sp)
    19fa:	e822                	sd	s0,16(sp)
    19fc:	1000                	addi	s0,sp,32
    19fe:	87aa                	mv	a5,a0
    1a00:	feb43023          	sd	a1,-32(s0)
    1a04:	fef42623          	sw	a5,-20(s0)
    1a08:	fec42783          	lw	a5,-20(s0)
    1a0c:	0007871b          	sext.w	a4,a5
    1a10:	07f00793          	li	a5,127
    1a14:	00e7ea63          	bltu	a5,a4,1a28 <sbi_hartmask_clear_hartindex+0x32>
    1a18:	fec42783          	lw	a5,-20(s0)
    1a1c:	fe043703          	ld	a4,-32(s0)
    1a20:	85ba                	mv	a1,a4
    1a22:	853e                	mv	a0,a5
    1a24:	effff0ef          	jal	1922 <__clear_bit>
    1a28:	0001                	nop
    1a2a:	60e2                	ld	ra,24(sp)
    1a2c:	6442                	ld	s0,16(sp)
    1a2e:	6105                	addi	sp,sp,32
    1a30:	8082                	ret

0000000000001a32 <sbi_platform_ipi_init>:
    1a32:	1101                	addi	sp,sp,-32
    1a34:	ec06                	sd	ra,24(sp)
    1a36:	e822                	sd	s0,16(sp)
    1a38:	1000                	addi	s0,sp,32
    1a3a:	fea43423          	sd	a0,-24(s0)
    1a3e:	87ae                	mv	a5,a1
    1a40:	fef42223          	sw	a5,-28(s0)
    1a44:	fe843783          	ld	a5,-24(s0)
    1a48:	c385                	beqz	a5,1a68 <sbi_platform_ipi_init+0x36>
    1a4a:	fe843783          	ld	a5,-24(s0)
    1a4e:	73bc                	ld	a5,96(a5)
    1a50:	7bbc                	ld	a5,112(a5)
    1a52:	cb99                	beqz	a5,1a68 <sbi_platform_ipi_init+0x36>
    1a54:	fe843783          	ld	a5,-24(s0)
    1a58:	73bc                	ld	a5,96(a5)
    1a5a:	7bbc                	ld	a5,112(a5)
    1a5c:	fe442703          	lw	a4,-28(s0)
    1a60:	853a                	mv	a0,a4
    1a62:	9782                	jalr	a5
    1a64:	87aa                	mv	a5,a0
    1a66:	a011                	j	1a6a <sbi_platform_ipi_init+0x38>
    1a68:	4781                	li	a5,0
    1a6a:	853e                	mv	a0,a5
    1a6c:	60e2                	ld	ra,24(sp)
    1a6e:	6442                	ld	s0,16(sp)
    1a70:	6105                	addi	sp,sp,32
    1a72:	8082                	ret

0000000000001a74 <sbi_platform_ipi_exit>:
    1a74:	1101                	addi	sp,sp,-32
    1a76:	ec06                	sd	ra,24(sp)
    1a78:	e822                	sd	s0,16(sp)
    1a7a:	1000                	addi	s0,sp,32
    1a7c:	fea43423          	sd	a0,-24(s0)
    1a80:	fe843783          	ld	a5,-24(s0)
    1a84:	cb99                	beqz	a5,1a9a <sbi_platform_ipi_exit+0x26>
    1a86:	fe843783          	ld	a5,-24(s0)
    1a8a:	73bc                	ld	a5,96(a5)
    1a8c:	7fbc                	ld	a5,120(a5)
    1a8e:	c791                	beqz	a5,1a9a <sbi_platform_ipi_exit+0x26>
    1a90:	fe843783          	ld	a5,-24(s0)
    1a94:	73bc                	ld	a5,96(a5)
    1a96:	7fbc                	ld	a5,120(a5)
    1a98:	9782                	jalr	a5
    1a9a:	0001                	nop
    1a9c:	60e2                	ld	ra,24(sp)
    1a9e:	6442                	ld	s0,16(sp)
    1aa0:	6105                	addi	sp,sp,32
    1aa2:	8082                	ret

0000000000001aa4 <sbi_ipi_send>:
    1aa4:	715d                	addi	sp,sp,-80
    1aa6:	e486                	sd	ra,72(sp)
    1aa8:	e0a2                	sd	s0,64(sp)
    1aaa:	0880                	addi	s0,sp,80
    1aac:	fca43423          	sd	a0,-56(s0)
    1ab0:	87ae                	mv	a5,a1
    1ab2:	8732                	mv	a4,a2
    1ab4:	fad43c23          	sd	a3,-72(s0)
    1ab8:	fcf42223          	sw	a5,-60(s0)
    1abc:	87ba                	mv	a5,a4
    1abe:	fcf42023          	sw	a5,-64(s0)
    1ac2:	fe042623          	sw	zero,-20(s0)
    1ac6:	fe043023          	sd	zero,-32(s0)
    1aca:	fc042783          	lw	a5,-64(s0)
    1ace:	0007871b          	sext.w	a4,a5
    1ad2:	03f00793          	li	a5,63
    1ad6:	00e7ec63          	bltu	a5,a4,1aee <sbi_ipi_send+0x4a>
    1ada:	00081717          	auipc	a4,0x81
    1ade:	55670713          	addi	a4,a4,1366 # 83030 <ipi_ops_array>
    1ae2:	fc046783          	lwu	a5,-64(s0)
    1ae6:	078e                	slli	a5,a5,0x3
    1ae8:	97ba                	add	a5,a5,a4
    1aea:	639c                	ld	a5,0(a5)
    1aec:	e399                	bnez	a5,1af2 <sbi_ipi_send+0x4e>
    1aee:	57f5                	li	a5,-3
    1af0:	a0dd                	j	1bd6 <sbi_ipi_send+0x132>
    1af2:	00081717          	auipc	a4,0x81
    1af6:	53e70713          	addi	a4,a4,1342 # 83030 <ipi_ops_array>
    1afa:	fc046783          	lwu	a5,-64(s0)
    1afe:	078e                	slli	a5,a5,0x3
    1b00:	97ba                	add	a5,a5,a4
    1b02:	639c                	ld	a5,0(a5)
    1b04:	fcf43c23          	sd	a5,-40(s0)
    1b08:	00081797          	auipc	a5,0x81
    1b0c:	8c87b783          	ld	a5,-1848(a5) # 823d0 <_GLOBAL_OFFSET_TABLE_+0x18>
    1b10:	4398                	lw	a4,0(a5)
    1b12:	fc442783          	lw	a5,-60(s0)
    1b16:	2781                	sext.w	a5,a5
    1b18:	00f76c63          	bltu	a4,a5,1b30 <sbi_ipi_send+0x8c>
    1b1c:	00081717          	auipc	a4,0x81
    1b20:	96473703          	ld	a4,-1692(a4) # 82480 <_GLOBAL_OFFSET_TABLE_+0xc8>
    1b24:	fc446783          	lwu	a5,-60(s0)
    1b28:	078e                	slli	a5,a5,0x3
    1b2a:	97ba                	add	a5,a5,a4
    1b2c:	639c                	ld	a5,0(a5)
    1b2e:	a011                	j	1b32 <sbi_ipi_send+0x8e>
    1b30:	4781                	li	a5,0
    1b32:	fef43023          	sd	a5,-32(s0)
    1b36:	fe043783          	ld	a5,-32(s0)
    1b3a:	e399                	bnez	a5,1b40 <sbi_ipi_send+0x9c>
    1b3c:	57f5                	li	a5,-3
    1b3e:	a861                	j	1bd6 <sbi_ipi_send+0x132>
    1b40:	00081797          	auipc	a5,0x81
    1b44:	4e078793          	addi	a5,a5,1248 # 83020 <ipi_data_off>
    1b48:	639c                	ld	a5,0(a5)
    1b4a:	fe043703          	ld	a4,-32(s0)
    1b4e:	97ba                	add	a5,a5,a4
    1b50:	fcf43823          	sd	a5,-48(s0)
    1b54:	fd843783          	ld	a5,-40(s0)
    1b58:	739c                	ld	a5,32(a5)
    1b5a:	cb85                	beqz	a5,1b8a <sbi_ipi_send+0xe6>
    1b5c:	fd843783          	ld	a5,-40(s0)
    1b60:	739c                	ld	a5,32(a5)
    1b62:	fc442703          	lw	a4,-60(s0)
    1b66:	fb843683          	ld	a3,-72(s0)
    1b6a:	863a                	mv	a2,a4
    1b6c:	fe043583          	ld	a1,-32(s0)
    1b70:	fc843503          	ld	a0,-56(s0)
    1b74:	9782                	jalr	a5
    1b76:	87aa                	mv	a5,a0
    1b78:	fef42623          	sw	a5,-20(s0)
    1b7c:	fec42783          	lw	a5,-20(s0)
    1b80:	2781                	sext.w	a5,a5
    1b82:	c395                	beqz	a5,1ba6 <sbi_ipi_send+0x102>
    1b84:	fec42783          	lw	a5,-20(s0)
    1b88:	a0b9                	j	1bd6 <sbi_ipi_send+0x132>
    1b8a:	fc843703          	ld	a4,-56(s0)
    1b8e:	fe043783          	ld	a5,-32(s0)
    1b92:	00f71a63          	bne	a4,a5,1ba6 <sbi_ipi_send+0x102>
    1b96:	fd843783          	ld	a5,-40(s0)
    1b9a:	7b9c                	ld	a5,48(a5)
    1b9c:	fc843503          	ld	a0,-56(s0)
    1ba0:	9782                	jalr	a5
    1ba2:	4781                	li	a5,0
    1ba4:	a80d                	j	1bd6 <sbi_ipi_send+0x132>
    1ba6:	fd043783          	ld	a5,-48(s0)
    1baa:	fc042703          	lw	a4,-64(s0)
    1bae:	86ba                	mv	a3,a4
    1bb0:	4705                	li	a4,1
    1bb2:	00d716b3          	sll	a3,a4,a3
    1bb6:	40d7b72f          	amoor.d	a4,a3,(a5)
    1bba:	eb09                	bnez	a4,1bcc <sbi_ipi_send+0x128>
    1bbc:	fc442783          	lw	a5,-60(s0)
    1bc0:	853e                	mv	a0,a5
    1bc2:	4c0000ef          	jal	2082 <sbi_ipi_raw_send>
    1bc6:	87aa                	mv	a5,a0
    1bc8:	fef42623          	sw	a5,-20(s0)
    1bcc:	4519                	li	a0,6
    1bce:	71a020ef          	jal	42e8 <sbi_pmu_ctr_incr_fw>
    1bd2:	fec42783          	lw	a5,-20(s0)
    1bd6:	853e                	mv	a0,a5
    1bd8:	60a6                	ld	ra,72(sp)
    1bda:	6406                	ld	s0,64(sp)
    1bdc:	6161                	addi	sp,sp,80
    1bde:	8082                	ret

0000000000001be0 <sbi_ipi_sync>:
    1be0:	7179                	addi	sp,sp,-48
    1be2:	f406                	sd	ra,40(sp)
    1be4:	f022                	sd	s0,32(sp)
    1be6:	1800                	addi	s0,sp,48
    1be8:	fca43c23          	sd	a0,-40(s0)
    1bec:	87ae                	mv	a5,a1
    1bee:	fcf42a23          	sw	a5,-44(s0)
    1bf2:	fd442783          	lw	a5,-44(s0)
    1bf6:	0007871b          	sext.w	a4,a5
    1bfa:	03f00793          	li	a5,63
    1bfe:	00e7ec63          	bltu	a5,a4,1c16 <sbi_ipi_sync+0x36>
    1c02:	00081717          	auipc	a4,0x81
    1c06:	42e70713          	addi	a4,a4,1070 # 83030 <ipi_ops_array>
    1c0a:	fd446783          	lwu	a5,-44(s0)
    1c0e:	078e                	slli	a5,a5,0x3
    1c10:	97ba                	add	a5,a5,a4
    1c12:	639c                	ld	a5,0(a5)
    1c14:	e399                	bnez	a5,1c1a <sbi_ipi_sync+0x3a>
    1c16:	57f5                	li	a5,-3
    1c18:	a03d                	j	1c46 <sbi_ipi_sync+0x66>
    1c1a:	00081717          	auipc	a4,0x81
    1c1e:	41670713          	addi	a4,a4,1046 # 83030 <ipi_ops_array>
    1c22:	fd446783          	lwu	a5,-44(s0)
    1c26:	078e                	slli	a5,a5,0x3
    1c28:	97ba                	add	a5,a5,a4
    1c2a:	639c                	ld	a5,0(a5)
    1c2c:	fef43423          	sd	a5,-24(s0)
    1c30:	fe843783          	ld	a5,-24(s0)
    1c34:	779c                	ld	a5,40(a5)
    1c36:	c799                	beqz	a5,1c44 <sbi_ipi_sync+0x64>
    1c38:	fe843783          	ld	a5,-24(s0)
    1c3c:	779c                	ld	a5,40(a5)
    1c3e:	fd843503          	ld	a0,-40(s0)
    1c42:	9782                	jalr	a5
    1c44:	4781                	li	a5,0
    1c46:	853e                	mv	a0,a5
    1c48:	70a2                	ld	ra,40(sp)
    1c4a:	7402                	ld	s0,32(sp)
    1c4c:	6145                	addi	sp,sp,48
    1c4e:	8082                	ret

0000000000001c50 <sbi_ipi_send_many>:
    1c50:	7159                	addi	sp,sp,-112
    1c52:	f486                	sd	ra,104(sp)
    1c54:	f0a2                	sd	s0,96(sp)
    1c56:	1880                	addi	s0,sp,112
    1c58:	faa43423          	sd	a0,-88(s0)
    1c5c:	fab43023          	sd	a1,-96(s0)
    1c60:	87b2                	mv	a5,a2
    1c62:	f8d43823          	sd	a3,-112(s0)
    1c66:	f8f42e23          	sw	a5,-100(s0)
    1c6a:	fe042623          	sw	zero,-20(s0)
    1c6e:	fa043c23          	sd	zero,-72(s0)
    1c72:	fc043023          	sd	zero,-64(s0)
    1c76:	f14027f3          	csrr	a5,mhartid
    1c7a:	80be                	mv	ra,a5
    1c7c:	8786                	mv	a5,ra
    1c7e:	2781                	sext.w	a5,a5
    1c80:	853e                	mv	a0,a5
    1c82:	39e040ef          	jal	6020 <sbi_hartid_to_hartindex>
    1c86:	87aa                	mv	a5,a0
    1c88:	2781                	sext.w	a5,a5
    1c8a:	853e                	mv	a0,a5
    1c8c:	2cc100ef          	jal	11f58 <sbi_hartindex_to_domain>
    1c90:	fca43c23          	sd	a0,-40(s0)
    1c94:	340027f3          	csrr	a5,mscratch
    1c98:	80be                	mv	ra,a5
    1c9a:	8786                	mv	a5,ra
    1c9c:	fcf43823          	sd	a5,-48(s0)
    1ca0:	fa043703          	ld	a4,-96(s0)
    1ca4:	57fd                	li	a5,-1
    1ca6:	06f70c63          	beq	a4,a5,1d1e <sbi_ipi_send_many+0xce>
    1caa:	fc840793          	addi	a5,s0,-56
    1cae:	863e                	mv	a2,a5
    1cb0:	fa043583          	ld	a1,-96(s0)
    1cb4:	fd843503          	ld	a0,-40(s0)
    1cb8:	1e7180ef          	jal	1a69e <sbi_hsm_hart_interruptible_mask>
    1cbc:	87aa                	mv	a5,a0
    1cbe:	fef42623          	sw	a5,-20(s0)
    1cc2:	fec42783          	lw	a5,-20(s0)
    1cc6:	2781                	sext.w	a5,a5
    1cc8:	c781                	beqz	a5,1cd0 <sbi_ipi_send_many+0x80>
    1cca:	fec42783          	lw	a5,-20(s0)
    1cce:	a2ad                	j	1e38 <sbi_ipi_send_many+0x1e8>
    1cd0:	fc843703          	ld	a4,-56(s0)
    1cd4:	fa843783          	ld	a5,-88(s0)
    1cd8:	8ff9                	and	a5,a5,a4
    1cda:	fcf43423          	sd	a5,-56(s0)
    1cde:	fa043783          	ld	a5,-96(s0)
    1ce2:	fef43023          	sd	a5,-32(s0)
    1ce6:	a805                	j	1d16 <sbi_ipi_send_many+0xc6>
    1ce8:	fc843783          	ld	a5,-56(s0)
    1cec:	8b85                	andi	a5,a5,1
    1cee:	cb91                	beqz	a5,1d02 <sbi_ipi_send_many+0xb2>
    1cf0:	fe043783          	ld	a5,-32(s0)
    1cf4:	2781                	sext.w	a5,a5
    1cf6:	fb840713          	addi	a4,s0,-72
    1cfa:	85ba                	mv	a1,a4
    1cfc:	853e                	mv	a0,a5
    1cfe:	cc5ff0ef          	jal	19c2 <sbi_hartmask_set_hartid>
    1d02:	fe043783          	ld	a5,-32(s0)
    1d06:	0785                	addi	a5,a5,1
    1d08:	fef43023          	sd	a5,-32(s0)
    1d0c:	fc843783          	ld	a5,-56(s0)
    1d10:	8385                	srli	a5,a5,0x1
    1d12:	fcf43423          	sd	a5,-56(s0)
    1d16:	fc843783          	ld	a5,-56(s0)
    1d1a:	f7f9                	bnez	a5,1ce8 <sbi_ipi_send_many+0x98>
    1d1c:	a0a5                	j	1d84 <sbi_ipi_send_many+0x134>
    1d1e:	fa043023          	sd	zero,-96(s0)
    1d22:	a0b1                	j	1d6e <sbi_ipi_send_many+0x11e>
    1d24:	fa043783          	ld	a5,-96(s0)
    1d28:	fef43023          	sd	a5,-32(s0)
    1d2c:	a805                	j	1d5c <sbi_ipi_send_many+0x10c>
    1d2e:	fc843783          	ld	a5,-56(s0)
    1d32:	8b85                	andi	a5,a5,1
    1d34:	cb91                	beqz	a5,1d48 <sbi_ipi_send_many+0xf8>
    1d36:	fe043783          	ld	a5,-32(s0)
    1d3a:	2781                	sext.w	a5,a5
    1d3c:	fb840713          	addi	a4,s0,-72
    1d40:	85ba                	mv	a1,a4
    1d42:	853e                	mv	a0,a5
    1d44:	c7fff0ef          	jal	19c2 <sbi_hartmask_set_hartid>
    1d48:	fe043783          	ld	a5,-32(s0)
    1d4c:	0785                	addi	a5,a5,1
    1d4e:	fef43023          	sd	a5,-32(s0)
    1d52:	fc843783          	ld	a5,-56(s0)
    1d56:	8385                	srli	a5,a5,0x1
    1d58:	fcf43423          	sd	a5,-56(s0)
    1d5c:	fc843783          	ld	a5,-56(s0)
    1d60:	f7f9                	bnez	a5,1d2e <sbi_ipi_send_many+0xde>
    1d62:	fa043783          	ld	a5,-96(s0)
    1d66:	04078793          	addi	a5,a5,64
    1d6a:	faf43023          	sd	a5,-96(s0)
    1d6e:	fc840793          	addi	a5,s0,-56
    1d72:	863e                	mv	a2,a5
    1d74:	fa043583          	ld	a1,-96(s0)
    1d78:	fd843503          	ld	a0,-40(s0)
    1d7c:	123180ef          	jal	1a69e <sbi_hsm_hart_interruptible_mask>
    1d80:	87aa                	mv	a5,a0
    1d82:	d3cd                	beqz	a5,1d24 <sbi_ipi_send_many+0xd4>
    1d84:	fe042423          	sw	zero,-24(s0)
    1d88:	fb840793          	addi	a5,s0,-72
    1d8c:	08000593          	li	a1,128
    1d90:	853e                	mv	a0,a5
    1d92:	6400e0ef          	jal	103d2 <find_first_bit>
    1d96:	fea43023          	sd	a0,-32(s0)
    1d9a:	a895                	j	1e0e <sbi_ipi_send_many+0x1be>
    1d9c:	fe043783          	ld	a5,-32(s0)
    1da0:	2781                	sext.w	a5,a5
    1da2:	f9c42703          	lw	a4,-100(s0)
    1da6:	f9043683          	ld	a3,-112(s0)
    1daa:	863a                	mv	a2,a4
    1dac:	85be                	mv	a1,a5
    1dae:	fd043503          	ld	a0,-48(s0)
    1db2:	cf3ff0ef          	jal	1aa4 <sbi_ipi_send>
    1db6:	87aa                	mv	a5,a0
    1db8:	fef42623          	sw	a5,-20(s0)
    1dbc:	fec42783          	lw	a5,-20(s0)
    1dc0:	2781                	sext.w	a5,a5
    1dc2:	0607c163          	bltz	a5,1e24 <sbi_ipi_send_many+0x1d4>
    1dc6:	fec42783          	lw	a5,-20(s0)
    1dca:	0007871b          	sext.w	a4,a5
    1dce:	4789                	li	a5,2
    1dd0:	00f71663          	bne	a4,a5,1ddc <sbi_ipi_send_many+0x18c>
    1dd4:	4785                	li	a5,1
    1dd6:	fef42423          	sw	a5,-24(s0)
    1dda:	a811                	j	1dee <sbi_ipi_send_many+0x19e>
    1ddc:	fe043783          	ld	a5,-32(s0)
    1de0:	2781                	sext.w	a5,a5
    1de2:	fb840713          	addi	a4,s0,-72
    1de6:	85ba                	mv	a1,a4
    1de8:	853e                	mv	a0,a5
    1dea:	c0dff0ef          	jal	19f6 <sbi_hartmask_clear_hartindex>
    1dee:	fe042623          	sw	zero,-20(s0)
    1df2:	fe043783          	ld	a5,-32(s0)
    1df6:	00178713          	addi	a4,a5,1
    1dfa:	fb840793          	addi	a5,s0,-72
    1dfe:	863a                	mv	a2,a4
    1e00:	08000593          	li	a1,128
    1e04:	853e                	mv	a0,a5
    1e06:	7fe0e0ef          	jal	10604 <find_next_bit>
    1e0a:	fea43023          	sd	a0,-32(s0)
    1e0e:	fe043703          	ld	a4,-32(s0)
    1e12:	07f00793          	li	a5,127
    1e16:	f8e7f3e3          	bgeu	a5,a4,1d9c <sbi_ipi_send_many+0x14c>
    1e1a:	fe842783          	lw	a5,-24(s0)
    1e1e:	2781                	sext.w	a5,a5
    1e20:	f3b5                	bnez	a5,1d84 <sbi_ipi_send_many+0x134>
    1e22:	a011                	j	1e26 <sbi_ipi_send_many+0x1d6>
    1e24:	0001                	nop
    1e26:	f9c42783          	lw	a5,-100(s0)
    1e2a:	85be                	mv	a1,a5
    1e2c:	fd043503          	ld	a0,-48(s0)
    1e30:	db1ff0ef          	jal	1be0 <sbi_ipi_sync>
    1e34:	fec42783          	lw	a5,-20(s0)
    1e38:	853e                	mv	a0,a5
    1e3a:	70a6                	ld	ra,104(sp)
    1e3c:	7406                	ld	s0,96(sp)
    1e3e:	6165                	addi	sp,sp,112
    1e40:	8082                	ret

0000000000001e42 <sbi_ipi_event_create>:
    1e42:	7179                	addi	sp,sp,-48
    1e44:	f422                	sd	s0,40(sp)
    1e46:	1800                	addi	s0,sp,48
    1e48:	fca43c23          	sd	a0,-40(s0)
    1e4c:	c1300793          	li	a5,-1005
    1e50:	fef42423          	sw	a5,-24(s0)
    1e54:	fd843783          	ld	a5,-40(s0)
    1e58:	c789                	beqz	a5,1e62 <sbi_ipi_event_create+0x20>
    1e5a:	fd843783          	ld	a5,-40(s0)
    1e5e:	7b9c                	ld	a5,48(a5)
    1e60:	e399                	bnez	a5,1e66 <sbi_ipi_event_create+0x24>
    1e62:	57f5                	li	a5,-3
    1e64:	a8a9                	j	1ebe <sbi_ipi_event_create+0x7c>
    1e66:	fe042623          	sw	zero,-20(s0)
    1e6a:	a081                	j	1eaa <sbi_ipi_event_create+0x68>
    1e6c:	00081717          	auipc	a4,0x81
    1e70:	1c470713          	addi	a4,a4,452 # 83030 <ipi_ops_array>
    1e74:	fec42783          	lw	a5,-20(s0)
    1e78:	078e                	slli	a5,a5,0x3
    1e7a:	97ba                	add	a5,a5,a4
    1e7c:	639c                	ld	a5,0(a5)
    1e7e:	e38d                	bnez	a5,1ea0 <sbi_ipi_event_create+0x5e>
    1e80:	fec42783          	lw	a5,-20(s0)
    1e84:	fef42423          	sw	a5,-24(s0)
    1e88:	00081717          	auipc	a4,0x81
    1e8c:	1a870713          	addi	a4,a4,424 # 83030 <ipi_ops_array>
    1e90:	fec42783          	lw	a5,-20(s0)
    1e94:	078e                	slli	a5,a5,0x3
    1e96:	97ba                	add	a5,a5,a4
    1e98:	fd843703          	ld	a4,-40(s0)
    1e9c:	e398                	sd	a4,0(a5)
    1e9e:	a831                	j	1eba <sbi_ipi_event_create+0x78>
    1ea0:	fec42783          	lw	a5,-20(s0)
    1ea4:	2785                	addiw	a5,a5,1
    1ea6:	fef42623          	sw	a5,-20(s0)
    1eaa:	fec42783          	lw	a5,-20(s0)
    1eae:	0007871b          	sext.w	a4,a5
    1eb2:	03f00793          	li	a5,63
    1eb6:	fae7dbe3          	bge	a5,a4,1e6c <sbi_ipi_event_create+0x2a>
    1eba:	fe842783          	lw	a5,-24(s0)
    1ebe:	853e                	mv	a0,a5
    1ec0:	7422                	ld	s0,40(sp)
    1ec2:	6145                	addi	sp,sp,48
    1ec4:	8082                	ret

0000000000001ec6 <sbi_ipi_event_destroy>:
    1ec6:	1101                	addi	sp,sp,-32
    1ec8:	ec22                	sd	s0,24(sp)
    1eca:	1000                	addi	s0,sp,32
    1ecc:	87aa                	mv	a5,a0
    1ece:	fef42623          	sw	a5,-20(s0)
    1ed2:	fec42783          	lw	a5,-20(s0)
    1ed6:	0007871b          	sext.w	a4,a5
    1eda:	03f00793          	li	a5,63
    1ede:	00e7ed63          	bltu	a5,a4,1ef8 <sbi_ipi_event_destroy+0x32>
    1ee2:	00081717          	auipc	a4,0x81
    1ee6:	14e70713          	addi	a4,a4,334 # 83030 <ipi_ops_array>
    1eea:	fec46783          	lwu	a5,-20(s0)
    1eee:	078e                	slli	a5,a5,0x3
    1ef0:	97ba                	add	a5,a5,a4
    1ef2:	0007b023          	sd	zero,0(a5)
    1ef6:	a011                	j	1efa <sbi_ipi_event_destroy+0x34>
    1ef8:	0001                	nop
    1efa:	6462                	ld	s0,24(sp)
    1efc:	6105                	addi	sp,sp,32
    1efe:	8082                	ret

0000000000001f00 <sbi_ipi_process_smode>:
    1f00:	7179                	addi	sp,sp,-48
    1f02:	f422                	sd	s0,40(sp)
    1f04:	1800                	addi	s0,sp,48
    1f06:	fca43c23          	sd	a0,-40(s0)
    1f0a:	4789                	li	a5,2
    1f0c:	fef43423          	sd	a5,-24(s0)
    1f10:	fe843783          	ld	a5,-24(s0)
    1f14:	3447a073          	csrs	mip,a5
    1f18:	0001                	nop
    1f1a:	7422                	ld	s0,40(sp)
    1f1c:	6145                	addi	sp,sp,48
    1f1e:	8082                	ret

0000000000001f20 <sbi_ipi_send_smode>:
    1f20:	1101                	addi	sp,sp,-32
    1f22:	ec06                	sd	ra,24(sp)
    1f24:	e822                	sd	s0,16(sp)
    1f26:	1000                	addi	s0,sp,32
    1f28:	fea43423          	sd	a0,-24(s0)
    1f2c:	feb43023          	sd	a1,-32(s0)
    1f30:	0007e797          	auipc	a5,0x7e
    1f34:	0d878793          	addi	a5,a5,216 # 80008 <ipi_smode_event>
    1f38:	439c                	lw	a5,0(a5)
    1f3a:	4681                	li	a3,0
    1f3c:	863e                	mv	a2,a5
    1f3e:	fe043583          	ld	a1,-32(s0)
    1f42:	fe843503          	ld	a0,-24(s0)
    1f46:	d0bff0ef          	jal	1c50 <sbi_ipi_send_many>
    1f4a:	87aa                	mv	a5,a0
    1f4c:	853e                	mv	a0,a5
    1f4e:	60e2                	ld	ra,24(sp)
    1f50:	6442                	ld	s0,16(sp)
    1f52:	6105                	addi	sp,sp,32
    1f54:	8082                	ret

0000000000001f56 <sbi_ipi_clear_smode>:
    1f56:	1101                	addi	sp,sp,-32
    1f58:	ec22                	sd	s0,24(sp)
    1f5a:	1000                	addi	s0,sp,32
    1f5c:	4789                	li	a5,2
    1f5e:	fef43423          	sd	a5,-24(s0)
    1f62:	fe843783          	ld	a5,-24(s0)
    1f66:	3447b073          	csrc	mip,a5
    1f6a:	0001                	nop
    1f6c:	6462                	ld	s0,24(sp)
    1f6e:	6105                	addi	sp,sp,32
    1f70:	8082                	ret

0000000000001f72 <sbi_ipi_process_halt>:
    1f72:	1101                	addi	sp,sp,-32
    1f74:	ec06                	sd	ra,24(sp)
    1f76:	e822                	sd	s0,16(sp)
    1f78:	1000                	addi	s0,sp,32
    1f7a:	fea43423          	sd	a0,-24(s0)
    1f7e:	4585                	li	a1,1
    1f80:	fe843503          	ld	a0,-24(s0)
    1f84:	6dd180ef          	jal	1ae60 <sbi_hsm_hart_stop>
    1f88:	0001                	nop
    1f8a:	60e2                	ld	ra,24(sp)
    1f8c:	6442                	ld	s0,16(sp)
    1f8e:	6105                	addi	sp,sp,32
    1f90:	8082                	ret

0000000000001f92 <sbi_ipi_send_halt>:
    1f92:	1101                	addi	sp,sp,-32
    1f94:	ec06                	sd	ra,24(sp)
    1f96:	e822                	sd	s0,16(sp)
    1f98:	1000                	addi	s0,sp,32
    1f9a:	fea43423          	sd	a0,-24(s0)
    1f9e:	feb43023          	sd	a1,-32(s0)
    1fa2:	0007e797          	auipc	a5,0x7e
    1fa6:	06a78793          	addi	a5,a5,106 # 8000c <ipi_halt_event>
    1faa:	439c                	lw	a5,0(a5)
    1fac:	4681                	li	a3,0
    1fae:	863e                	mv	a2,a5
    1fb0:	fe043583          	ld	a1,-32(s0)
    1fb4:	fe843503          	ld	a0,-24(s0)
    1fb8:	c99ff0ef          	jal	1c50 <sbi_ipi_send_many>
    1fbc:	87aa                	mv	a5,a0
    1fbe:	853e                	mv	a0,a5
    1fc0:	60e2                	ld	ra,24(sp)
    1fc2:	6442                	ld	s0,16(sp)
    1fc4:	6105                	addi	sp,sp,32
    1fc6:	8082                	ret

0000000000001fc8 <sbi_ipi_process>:
    1fc8:	7139                	addi	sp,sp,-64
    1fca:	fc06                	sd	ra,56(sp)
    1fcc:	f822                	sd	s0,48(sp)
    1fce:	0080                	addi	s0,sp,64
    1fd0:	340027f3          	csrr	a5,mscratch
    1fd4:	80be                	mv	ra,a5
    1fd6:	8786                	mv	a5,ra
    1fd8:	fcf43c23          	sd	a5,-40(s0)
    1fdc:	00081797          	auipc	a5,0x81
    1fe0:	04478793          	addi	a5,a5,68 # 83020 <ipi_data_off>
    1fe4:	639c                	ld	a5,0(a5)
    1fe6:	fd843703          	ld	a4,-40(s0)
    1fea:	97ba                	add	a5,a5,a4
    1fec:	fcf43823          	sd	a5,-48(s0)
    1ff0:	f14027f3          	csrr	a5,mhartid
    1ff4:	80be                	mv	ra,a5
    1ff6:	8786                	mv	a5,ra
    1ff8:	2781                	sext.w	a5,a5
    1ffa:	853e                	mv	a0,a5
    1ffc:	024040ef          	jal	6020 <sbi_hartid_to_hartindex>
    2000:	87aa                	mv	a5,a0
    2002:	fcf42623          	sw	a5,-52(s0)
    2006:	451d                	li	a0,7
    2008:	2e0020ef          	jal	42e8 <sbi_pmu_ctr_incr_fw>
    200c:	fcc42783          	lw	a5,-52(s0)
    2010:	853e                	mv	a0,a5
    2012:	0c0000ef          	jal	20d2 <sbi_ipi_raw_clear>
    2016:	fd043783          	ld	a5,-48(s0)
    201a:	4581                	li	a1,0
    201c:	853e                	mv	a0,a5
    201e:	3ae0d0ef          	jal	f3cc <atomic_raw_xchg_ulong>
    2022:	fea43423          	sd	a0,-24(s0)
    2026:	fe042223          	sw	zero,-28(s0)
    202a:	a099                	j	2070 <sbi_ipi_process+0xa8>
    202c:	fe843783          	ld	a5,-24(s0)
    2030:	8b85                	andi	a5,a5,1
    2032:	c78d                	beqz	a5,205c <sbi_ipi_process+0x94>
    2034:	00081717          	auipc	a4,0x81
    2038:	ffc70713          	addi	a4,a4,-4 # 83030 <ipi_ops_array>
    203c:	fe446783          	lwu	a5,-28(s0)
    2040:	078e                	slli	a5,a5,0x3
    2042:	97ba                	add	a5,a5,a4
    2044:	639c                	ld	a5,0(a5)
    2046:	fcf43023          	sd	a5,-64(s0)
    204a:	fc043783          	ld	a5,-64(s0)
    204e:	c799                	beqz	a5,205c <sbi_ipi_process+0x94>
    2050:	fc043783          	ld	a5,-64(s0)
    2054:	7b9c                	ld	a5,48(a5)
    2056:	fd843503          	ld	a0,-40(s0)
    205a:	9782                	jalr	a5
    205c:	fe843783          	ld	a5,-24(s0)
    2060:	8385                	srli	a5,a5,0x1
    2062:	fef43423          	sd	a5,-24(s0)
    2066:	fe442783          	lw	a5,-28(s0)
    206a:	2785                	addiw	a5,a5,1
    206c:	fef42223          	sw	a5,-28(s0)
    2070:	fe843783          	ld	a5,-24(s0)
    2074:	ffc5                	bnez	a5,202c <sbi_ipi_process+0x64>
    2076:	0001                	nop
    2078:	0001                	nop
    207a:	70e2                	ld	ra,56(sp)
    207c:	7442                	ld	s0,48(sp)
    207e:	6121                	addi	sp,sp,64
    2080:	8082                	ret

0000000000002082 <sbi_ipi_raw_send>:
    2082:	1101                	addi	sp,sp,-32
    2084:	ec06                	sd	ra,24(sp)
    2086:	e822                	sd	s0,16(sp)
    2088:	1000                	addi	s0,sp,32
    208a:	87aa                	mv	a5,a0
    208c:	fef42623          	sw	a5,-20(s0)
    2090:	00081797          	auipc	a5,0x81
    2094:	f9878793          	addi	a5,a5,-104 # 83028 <ipi_dev>
    2098:	639c                	ld	a5,0(a5)
    209a:	cb81                	beqz	a5,20aa <sbi_ipi_raw_send+0x28>
    209c:	00081797          	auipc	a5,0x81
    20a0:	f8c78793          	addi	a5,a5,-116 # 83028 <ipi_dev>
    20a4:	639c                	ld	a5,0(a5)
    20a6:	739c                	ld	a5,32(a5)
    20a8:	e399                	bnez	a5,20ae <sbi_ipi_raw_send+0x2c>
    20aa:	57f5                	li	a5,-3
    20ac:	a831                	j	20c8 <sbi_ipi_raw_send+0x46>
    20ae:	0550000f          	fence	ow,ow
    20b2:	00081797          	auipc	a5,0x81
    20b6:	f7678793          	addi	a5,a5,-138 # 83028 <ipi_dev>
    20ba:	639c                	ld	a5,0(a5)
    20bc:	739c                	ld	a5,32(a5)
    20be:	fec42703          	lw	a4,-20(s0)
    20c2:	853a                	mv	a0,a4
    20c4:	9782                	jalr	a5
    20c6:	4781                	li	a5,0
    20c8:	853e                	mv	a0,a5
    20ca:	60e2                	ld	ra,24(sp)
    20cc:	6442                	ld	s0,16(sp)
    20ce:	6105                	addi	sp,sp,32
    20d0:	8082                	ret

00000000000020d2 <sbi_ipi_raw_clear>:
    20d2:	1101                	addi	sp,sp,-32
    20d4:	ec06                	sd	ra,24(sp)
    20d6:	e822                	sd	s0,16(sp)
    20d8:	1000                	addi	s0,sp,32
    20da:	87aa                	mv	a5,a0
    20dc:	fef42623          	sw	a5,-20(s0)
    20e0:	00081797          	auipc	a5,0x81
    20e4:	f4878793          	addi	a5,a5,-184 # 83028 <ipi_dev>
    20e8:	639c                	ld	a5,0(a5)
    20ea:	c395                	beqz	a5,210e <sbi_ipi_raw_clear+0x3c>
    20ec:	00081797          	auipc	a5,0x81
    20f0:	f3c78793          	addi	a5,a5,-196 # 83028 <ipi_dev>
    20f4:	639c                	ld	a5,0(a5)
    20f6:	779c                	ld	a5,40(a5)
    20f8:	cb99                	beqz	a5,210e <sbi_ipi_raw_clear+0x3c>
    20fa:	00081797          	auipc	a5,0x81
    20fe:	f2e78793          	addi	a5,a5,-210 # 83028 <ipi_dev>
    2102:	639c                	ld	a5,0(a5)
    2104:	779c                	ld	a5,40(a5)
    2106:	fec42703          	lw	a4,-20(s0)
    210a:	853a                	mv	a0,a4
    210c:	9782                	jalr	a5
    210e:	0550000f          	fence	ow,ow
    2112:	0001                	nop
    2114:	60e2                	ld	ra,24(sp)
    2116:	6442                	ld	s0,16(sp)
    2118:	6105                	addi	sp,sp,32
    211a:	8082                	ret

000000000000211c <sbi_ipi_get_device>:
    211c:	1141                	addi	sp,sp,-16
    211e:	e422                	sd	s0,8(sp)
    2120:	0800                	addi	s0,sp,16
    2122:	00081797          	auipc	a5,0x81
    2126:	f0678793          	addi	a5,a5,-250 # 83028 <ipi_dev>
    212a:	639c                	ld	a5,0(a5)
    212c:	853e                	mv	a0,a5
    212e:	6422                	ld	s0,8(sp)
    2130:	0141                	addi	sp,sp,16
    2132:	8082                	ret

0000000000002134 <sbi_ipi_set_device>:
    2134:	1101                	addi	sp,sp,-32
    2136:	ec22                	sd	s0,24(sp)
    2138:	1000                	addi	s0,sp,32
    213a:	fea43423          	sd	a0,-24(s0)
    213e:	fe843783          	ld	a5,-24(s0)
    2142:	cf99                	beqz	a5,2160 <sbi_ipi_set_device+0x2c>
    2144:	00081797          	auipc	a5,0x81
    2148:	ee478793          	addi	a5,a5,-284 # 83028 <ipi_dev>
    214c:	639c                	ld	a5,0(a5)
    214e:	eb89                	bnez	a5,2160 <sbi_ipi_set_device+0x2c>
    2150:	00081797          	auipc	a5,0x81
    2154:	ed878793          	addi	a5,a5,-296 # 83028 <ipi_dev>
    2158:	fe843703          	ld	a4,-24(s0)
    215c:	e398                	sd	a4,0(a5)
    215e:	a011                	j	2162 <sbi_ipi_set_device+0x2e>
    2160:	0001                	nop
    2162:	6462                	ld	s0,24(sp)
    2164:	6105                	addi	sp,sp,32
    2166:	8082                	ret

0000000000002168 <sbi_ipi_init>:
    2168:	7139                	addi	sp,sp,-64
    216a:	fc06                	sd	ra,56(sp)
    216c:	f822                	sd	s0,48(sp)
    216e:	0080                	addi	s0,sp,64
    2170:	fca43423          	sd	a0,-56(s0)
    2174:	87ae                	mv	a5,a1
    2176:	fcf42223          	sw	a5,-60(s0)
    217a:	fc442783          	lw	a5,-60(s0)
    217e:	2781                	sext.w	a5,a5
    2180:	c7c1                	beqz	a5,2208 <sbi_ipi_init+0xa0>
    2182:	4521                	li	a0,8
    2184:	7b3030ef          	jal	6136 <sbi_scratch_alloc_offset>
    2188:	872a                	mv	a4,a0
    218a:	00081797          	auipc	a5,0x81
    218e:	e9678793          	addi	a5,a5,-362 # 83020 <ipi_data_off>
    2192:	e398                	sd	a4,0(a5)
    2194:	00081797          	auipc	a5,0x81
    2198:	e8c78793          	addi	a5,a5,-372 # 83020 <ipi_data_off>
    219c:	639c                	ld	a5,0(a5)
    219e:	e781                	bnez	a5,21a6 <sbi_ipi_init+0x3e>
    21a0:	c1200793          	li	a5,-1006
    21a4:	a8e5                	j	229c <sbi_ipi_init+0x134>
    21a6:	0007e517          	auipc	a0,0x7e
    21aa:	5da50513          	addi	a0,a0,1498 # 80780 <ipi_smode_ops>
    21ae:	c95ff0ef          	jal	1e42 <sbi_ipi_event_create>
    21b2:	87aa                	mv	a5,a0
    21b4:	fef42623          	sw	a5,-20(s0)
    21b8:	fec42783          	lw	a5,-20(s0)
    21bc:	2781                	sext.w	a5,a5
    21be:	0007d563          	bgez	a5,21c8 <sbi_ipi_init+0x60>
    21c2:	fec42783          	lw	a5,-20(s0)
    21c6:	a8d9                	j	229c <sbi_ipi_init+0x134>
    21c8:	fec42703          	lw	a4,-20(s0)
    21cc:	0007e797          	auipc	a5,0x7e
    21d0:	e3c78793          	addi	a5,a5,-452 # 80008 <ipi_smode_event>
    21d4:	c398                	sw	a4,0(a5)
    21d6:	0007e517          	auipc	a0,0x7e
    21da:	5e250513          	addi	a0,a0,1506 # 807b8 <ipi_halt_ops>
    21de:	c65ff0ef          	jal	1e42 <sbi_ipi_event_create>
    21e2:	87aa                	mv	a5,a0
    21e4:	fef42623          	sw	a5,-20(s0)
    21e8:	fec42783          	lw	a5,-20(s0)
    21ec:	2781                	sext.w	a5,a5
    21ee:	0007d563          	bgez	a5,21f8 <sbi_ipi_init+0x90>
    21f2:	fec42783          	lw	a5,-20(s0)
    21f6:	a05d                	j	229c <sbi_ipi_init+0x134>
    21f8:	fec42703          	lw	a4,-20(s0)
    21fc:	0007e797          	auipc	a5,0x7e
    2200:	e1078793          	addi	a5,a5,-496 # 8000c <ipi_halt_event>
    2204:	c398                	sw	a4,0(a5)
    2206:	a089                	j	2248 <sbi_ipi_init+0xe0>
    2208:	00081797          	auipc	a5,0x81
    220c:	e1878793          	addi	a5,a5,-488 # 83020 <ipi_data_off>
    2210:	639c                	ld	a5,0(a5)
    2212:	e781                	bnez	a5,221a <sbi_ipi_init+0xb2>
    2214:	c1200793          	li	a5,-1006
    2218:	a051                	j	229c <sbi_ipi_init+0x134>
    221a:	0007e797          	auipc	a5,0x7e
    221e:	dee78793          	addi	a5,a5,-530 # 80008 <ipi_smode_event>
    2222:	439c                	lw	a5,0(a5)
    2224:	873e                	mv	a4,a5
    2226:	03f00793          	li	a5,63
    222a:	00e7ec63          	bltu	a5,a4,2242 <sbi_ipi_init+0xda>
    222e:	0007e797          	auipc	a5,0x7e
    2232:	dde78793          	addi	a5,a5,-546 # 8000c <ipi_halt_event>
    2236:	439c                	lw	a5,0(a5)
    2238:	873e                	mv	a4,a5
    223a:	03f00793          	li	a5,63
    223e:	00e7f563          	bgeu	a5,a4,2248 <sbi_ipi_init+0xe0>
    2242:	c1300793          	li	a5,-1005
    2246:	a899                	j	229c <sbi_ipi_init+0x134>
    2248:	00081797          	auipc	a5,0x81
    224c:	dd878793          	addi	a5,a5,-552 # 83020 <ipi_data_off>
    2250:	639c                	ld	a5,0(a5)
    2252:	fc843703          	ld	a4,-56(s0)
    2256:	97ba                	add	a5,a5,a4
    2258:	fef43023          	sd	a5,-32(s0)
    225c:	fe043783          	ld	a5,-32(s0)
    2260:	0007b023          	sd	zero,0(a5)
    2264:	fc843783          	ld	a5,-56(s0)
    2268:	67bc                	ld	a5,72(a5)
    226a:	873e                	mv	a4,a5
    226c:	fc442783          	lw	a5,-60(s0)
    2270:	85be                	mv	a1,a5
    2272:	853a                	mv	a0,a4
    2274:	fbeff0ef          	jal	1a32 <sbi_platform_ipi_init>
    2278:	87aa                	mv	a5,a0
    227a:	fef42623          	sw	a5,-20(s0)
    227e:	fec42783          	lw	a5,-20(s0)
    2282:	2781                	sext.w	a5,a5
    2284:	c781                	beqz	a5,228c <sbi_ipi_init+0x124>
    2286:	fec42783          	lw	a5,-20(s0)
    228a:	a809                	j	229c <sbi_ipi_init+0x134>
    228c:	47a1                	li	a5,8
    228e:	fcf43c23          	sd	a5,-40(s0)
    2292:	fd843783          	ld	a5,-40(s0)
    2296:	3047a073          	csrs	mie,a5
    229a:	4781                	li	a5,0
    229c:	853e                	mv	a0,a5
    229e:	70e2                	ld	ra,56(sp)
    22a0:	7442                	ld	s0,48(sp)
    22a2:	6121                	addi	sp,sp,64
    22a4:	8082                	ret

00000000000022a6 <sbi_ipi_exit>:
    22a6:	7179                	addi	sp,sp,-48
    22a8:	f406                	sd	ra,40(sp)
    22aa:	f022                	sd	s0,32(sp)
    22ac:	1800                	addi	s0,sp,48
    22ae:	fca43c23          	sd	a0,-40(s0)
    22b2:	47a1                	li	a5,8
    22b4:	fef43423          	sd	a5,-24(s0)
    22b8:	fe843783          	ld	a5,-24(s0)
    22bc:	3047b073          	csrc	mie,a5
    22c0:	d09ff0ef          	jal	1fc8 <sbi_ipi_process>
    22c4:	fd843783          	ld	a5,-40(s0)
    22c8:	67bc                	ld	a5,72(a5)
    22ca:	853e                	mv	a0,a5
    22cc:	fa8ff0ef          	jal	1a74 <sbi_platform_ipi_exit>
    22d0:	0001                	nop
    22d2:	70a2                	ld	ra,40(sp)
    22d4:	7402                	ld	s0,32(sp)
    22d6:	6145                	addi	sp,sp,48
    22d8:	8082                	ret

00000000000022da <sbi_platform_irqchip_init>:
    22da:	1101                	addi	sp,sp,-32
    22dc:	ec06                	sd	ra,24(sp)
    22de:	e822                	sd	s0,16(sp)
    22e0:	1000                	addi	s0,sp,32
    22e2:	fea43423          	sd	a0,-24(s0)
    22e6:	87ae                	mv	a5,a1
    22e8:	fef42223          	sw	a5,-28(s0)
    22ec:	fe843783          	ld	a5,-24(s0)
    22f0:	c385                	beqz	a5,2310 <sbi_platform_irqchip_init+0x36>
    22f2:	fe843783          	ld	a5,-24(s0)
    22f6:	73bc                	ld	a5,96(a5)
    22f8:	73bc                	ld	a5,96(a5)
    22fa:	cb99                	beqz	a5,2310 <sbi_platform_irqchip_init+0x36>
    22fc:	fe843783          	ld	a5,-24(s0)
    2300:	73bc                	ld	a5,96(a5)
    2302:	73bc                	ld	a5,96(a5)
    2304:	fe442703          	lw	a4,-28(s0)
    2308:	853a                	mv	a0,a4
    230a:	9782                	jalr	a5
    230c:	87aa                	mv	a5,a0
    230e:	a011                	j	2312 <sbi_platform_irqchip_init+0x38>
    2310:	4781                	li	a5,0
    2312:	853e                	mv	a0,a5
    2314:	60e2                	ld	ra,24(sp)
    2316:	6442                	ld	s0,16(sp)
    2318:	6105                	addi	sp,sp,32
    231a:	8082                	ret

000000000000231c <sbi_platform_irqchip_exit>:
    231c:	1101                	addi	sp,sp,-32
    231e:	ec06                	sd	ra,24(sp)
    2320:	e822                	sd	s0,16(sp)
    2322:	1000                	addi	s0,sp,32
    2324:	fea43423          	sd	a0,-24(s0)
    2328:	fe843783          	ld	a5,-24(s0)
    232c:	cb99                	beqz	a5,2342 <sbi_platform_irqchip_exit+0x26>
    232e:	fe843783          	ld	a5,-24(s0)
    2332:	73bc                	ld	a5,96(a5)
    2334:	77bc                	ld	a5,104(a5)
    2336:	c791                	beqz	a5,2342 <sbi_platform_irqchip_exit+0x26>
    2338:	fe843783          	ld	a5,-24(s0)
    233c:	73bc                	ld	a5,96(a5)
    233e:	77bc                	ld	a5,104(a5)
    2340:	9782                	jalr	a5
    2342:	0001                	nop
    2344:	60e2                	ld	ra,24(sp)
    2346:	6442                	ld	s0,16(sp)
    2348:	6105                	addi	sp,sp,32
    234a:	8082                	ret

000000000000234c <default_irqfn>:
    234c:	1141                	addi	sp,sp,-16
    234e:	e422                	sd	s0,8(sp)
    2350:	0800                	addi	s0,sp,16
    2352:	c1800793          	li	a5,-1000
    2356:	853e                	mv	a0,a5
    2358:	6422                	ld	s0,8(sp)
    235a:	0141                	addi	sp,sp,16
    235c:	8082                	ret

000000000000235e <sbi_irqchip_set_irqfn>:
    235e:	1101                	addi	sp,sp,-32
    2360:	ec22                	sd	s0,24(sp)
    2362:	1000                	addi	s0,sp,32
    2364:	fea43423          	sd	a0,-24(s0)
    2368:	fe843783          	ld	a5,-24(s0)
    236c:	cb81                	beqz	a5,237c <sbi_irqchip_set_irqfn+0x1e>
    236e:	0007e797          	auipc	a5,0x7e
    2372:	48278793          	addi	a5,a5,1154 # 807f0 <ext_irqfn>
    2376:	fe843703          	ld	a4,-24(s0)
    237a:	e398                	sd	a4,0(a5)
    237c:	0001                	nop
    237e:	6462                	ld	s0,24(sp)
    2380:	6105                	addi	sp,sp,32
    2382:	8082                	ret

0000000000002384 <sbi_irqchip_process>:
    2384:	1141                	addi	sp,sp,-16
    2386:	e406                	sd	ra,8(sp)
    2388:	e022                	sd	s0,0(sp)
    238a:	0800                	addi	s0,sp,16
    238c:	0007e797          	auipc	a5,0x7e
    2390:	46478793          	addi	a5,a5,1124 # 807f0 <ext_irqfn>
    2394:	639c                	ld	a5,0(a5)
    2396:	9782                	jalr	a5
    2398:	87aa                	mv	a5,a0
    239a:	853e                	mv	a0,a5
    239c:	60a2                	ld	ra,8(sp)
    239e:	6402                	ld	s0,0(sp)
    23a0:	0141                	addi	sp,sp,16
    23a2:	8082                	ret

00000000000023a4 <sbi_irqchip_init>:
    23a4:	7139                	addi	sp,sp,-64
    23a6:	fc06                	sd	ra,56(sp)
    23a8:	f822                	sd	s0,48(sp)
    23aa:	0080                	addi	s0,sp,64
    23ac:	fca43423          	sd	a0,-56(s0)
    23b0:	87ae                	mv	a5,a1
    23b2:	fcf42223          	sw	a5,-60(s0)
    23b6:	fc843783          	ld	a5,-56(s0)
    23ba:	67bc                	ld	a5,72(a5)
    23bc:	fef43423          	sd	a5,-24(s0)
    23c0:	fc442783          	lw	a5,-60(s0)
    23c4:	85be                	mv	a1,a5
    23c6:	fe843503          	ld	a0,-24(s0)
    23ca:	f11ff0ef          	jal	22da <sbi_platform_irqchip_init>
    23ce:	87aa                	mv	a5,a0
    23d0:	fef42223          	sw	a5,-28(s0)
    23d4:	fe442783          	lw	a5,-28(s0)
    23d8:	2781                	sext.w	a5,a5
    23da:	c781                	beqz	a5,23e2 <sbi_irqchip_init+0x3e>
    23dc:	fe442783          	lw	a5,-28(s0)
    23e0:	a035                	j	240c <sbi_irqchip_init+0x68>
    23e2:	0007e797          	auipc	a5,0x7e
    23e6:	40e78793          	addi	a5,a5,1038 # 807f0 <ext_irqfn>
    23ea:	6398                	ld	a4,0(a5)
    23ec:	00000797          	auipc	a5,0x0
    23f0:	f6078793          	addi	a5,a5,-160 # 234c <default_irqfn>
    23f4:	00f70b63          	beq	a4,a5,240a <sbi_irqchip_init+0x66>
    23f8:	6785                	lui	a5,0x1
    23fa:	80078793          	addi	a5,a5,-2048 # 800 <sbi_platform_nascent_init+0x4>
    23fe:	fcf43c23          	sd	a5,-40(s0)
    2402:	fd843783          	ld	a5,-40(s0)
    2406:	3047a073          	csrs	mie,a5
    240a:	4781                	li	a5,0
    240c:	853e                	mv	a0,a5
    240e:	70e2                	ld	ra,56(sp)
    2410:	7442                	ld	s0,48(sp)
    2412:	6121                	addi	sp,sp,64
    2414:	8082                	ret

0000000000002416 <sbi_irqchip_exit>:
    2416:	7179                	addi	sp,sp,-48
    2418:	f406                	sd	ra,40(sp)
    241a:	f022                	sd	s0,32(sp)
    241c:	1800                	addi	s0,sp,48
    241e:	fca43c23          	sd	a0,-40(s0)
    2422:	fd843783          	ld	a5,-40(s0)
    2426:	67bc                	ld	a5,72(a5)
    2428:	fef43423          	sd	a5,-24(s0)
    242c:	0007e797          	auipc	a5,0x7e
    2430:	3c478793          	addi	a5,a5,964 # 807f0 <ext_irqfn>
    2434:	6398                	ld	a4,0(a5)
    2436:	00000797          	auipc	a5,0x0
    243a:	f1678793          	addi	a5,a5,-234 # 234c <default_irqfn>
    243e:	00f70b63          	beq	a4,a5,2454 <sbi_irqchip_exit+0x3e>
    2442:	6785                	lui	a5,0x1
    2444:	80078793          	addi	a5,a5,-2048 # 800 <sbi_platform_nascent_init+0x4>
    2448:	fef43023          	sd	a5,-32(s0)
    244c:	fe043783          	ld	a5,-32(s0)
    2450:	3047b073          	csrc	mie,a5
    2454:	fe843503          	ld	a0,-24(s0)
    2458:	ec5ff0ef          	jal	231c <sbi_platform_irqchip_exit>
    245c:	0001                	nop
    245e:	70a2                	ld	ra,40(sp)
    2460:	7402                	ld	s0,32(sp)
    2462:	6145                	addi	sp,sp,48
    2464:	8082                	ret

0000000000002466 <sbi_platform_get_features>:
    2466:	1101                	addi	sp,sp,-32
    2468:	ec22                	sd	s0,24(sp)
    246a:	1000                	addi	s0,sp,32
    246c:	fea43423          	sd	a0,-24(s0)
    2470:	fe843783          	ld	a5,-24(s0)
    2474:	c789                	beqz	a5,247e <sbi_platform_get_features+0x18>
    2476:	fe843783          	ld	a5,-24(s0)
    247a:	67bc                	ld	a5,72(a5)
    247c:	a011                	j	2480 <sbi_platform_get_features+0x1a>
    247e:	4781                	li	a5,0
    2480:	853e                	mv	a0,a5
    2482:	6462                	ld	s0,24(sp)
    2484:	6105                	addi	sp,sp,32
    2486:	8082                	ret

0000000000002488 <sbi_platform_feature_id2string>:
    2488:	7179                	addi	sp,sp,-48
    248a:	f422                	sd	s0,40(sp)
    248c:	1800                	addi	s0,sp,48
    248e:	fca43c23          	sd	a0,-40(s0)
    2492:	fe043423          	sd	zero,-24(s0)
    2496:	fd843783          	ld	a5,-40(s0)
    249a:	e399                	bnez	a5,24a0 <sbi_platform_feature_id2string+0x18>
    249c:	4781                	li	a5,0
    249e:	a005                	j	24be <sbi_platform_feature_id2string+0x36>
    24a0:	fd843703          	ld	a4,-40(s0)
    24a4:	4789                	li	a5,2
    24a6:	00f71963          	bne	a4,a5,24b8 <sbi_platform_feature_id2string+0x30>
    24aa:	00031797          	auipc	a5,0x31
    24ae:	32e78793          	addi	a5,a5,814 # 337d8 <__func__.0+0x10>
    24b2:	fef43423          	sd	a5,-24(s0)
    24b6:	a011                	j	24ba <sbi_platform_feature_id2string+0x32>
    24b8:	0001                	nop
    24ba:	fe843783          	ld	a5,-24(s0)
    24be:	853e                	mv	a0,a5
    24c0:	7422                	ld	s0,40(sp)
    24c2:	6145                	addi	sp,sp,48
    24c4:	8082                	ret

00000000000024c6 <sbi_platform_get_features_str>:
    24c6:	711d                	addi	sp,sp,-96
    24c8:	ec86                	sd	ra,88(sp)
    24ca:	e8a2                	sd	s0,80(sp)
    24cc:	1080                	addi	s0,sp,96
    24ce:	faa43c23          	sd	a0,-72(s0)
    24d2:	fab43823          	sd	a1,-80(s0)
    24d6:	87b2                	mv	a5,a2
    24d8:	faf42623          	sw	a5,-84(s0)
    24dc:	4785                	li	a5,1
    24de:	fef43423          	sd	a5,-24(s0)
    24e2:	fe042223          	sw	zero,-28(s0)
    24e6:	fb843783          	ld	a5,-72(s0)
    24ea:	10078c63          	beqz	a5,2602 <sbi_platform_get_features_str+0x13c>
    24ee:	fb043783          	ld	a5,-80(s0)
    24f2:	10078863          	beqz	a5,2602 <sbi_platform_get_features_str+0x13c>
    24f6:	fac42783          	lw	a5,-84(s0)
    24fa:	2781                	sext.w	a5,a5
    24fc:	10078363          	beqz	a5,2602 <sbi_platform_get_features_str+0x13c>
    2500:	fac42783          	lw	a5,-84(s0)
    2504:	863e                	mv	a2,a5
    2506:	4581                	li	a1,0
    2508:	fb043503          	ld	a0,-80(s0)
    250c:	5bb050ef          	jal	82c6 <sbi_memset>
    2510:	fb843503          	ld	a0,-72(s0)
    2514:	f53ff0ef          	jal	2466 <sbi_platform_get_features>
    2518:	fca43c23          	sd	a0,-40(s0)
    251c:	fd843783          	ld	a5,-40(s0)
    2520:	c7cd                	beqz	a5,25ca <sbi_platform_get_features_str+0x104>
    2522:	fd843703          	ld	a4,-40(s0)
    2526:	fe843783          	ld	a5,-24(s0)
    252a:	8ff9                	and	a5,a5,a4
    252c:	c7c1                	beqz	a5,25b4 <sbi_platform_get_features_str+0xee>
    252e:	fe843503          	ld	a0,-24(s0)
    2532:	f57ff0ef          	jal	2488 <sbi_platform_feature_id2string>
    2536:	fca43823          	sd	a0,-48(s0)
    253a:	fd043783          	ld	a5,-48(s0)
    253e:	cbbd                	beqz	a5,25b4 <sbi_platform_get_features_str+0xee>
    2540:	fe442783          	lw	a5,-28(s0)
    2544:	fb043703          	ld	a4,-80(s0)
    2548:	97ba                	add	a5,a5,a4
    254a:	fac42703          	lw	a4,-84(s0)
    254e:	86ba                	mv	a3,a4
    2550:	fe442703          	lw	a4,-28(s0)
    2554:	40e6873b          	subw	a4,a3,a4
    2558:	2701                	sext.w	a4,a4
    255a:	2701                	sext.w	a4,a4
    255c:	fd043683          	ld	a3,-48(s0)
    2560:	00031617          	auipc	a2,0x31
    2564:	28060613          	addi	a2,a2,640 # 337e0 <__func__.0+0x18>
    2568:	85ba                	mv	a1,a4
    256a:	853e                	mv	a0,a5
    256c:	3840f0ef          	jal	118f0 <sbi_snprintf>
    2570:	87aa                	mv	a5,a0
    2572:	fcf42623          	sw	a5,-52(s0)
    2576:	fcc42783          	lw	a5,-52(s0)
    257a:	2781                	sext.w	a5,a5
    257c:	0407c963          	bltz	a5,25ce <sbi_platform_get_features_str+0x108>
    2580:	fe442783          	lw	a5,-28(s0)
    2584:	873e                	mv	a4,a5
    2586:	fcc42783          	lw	a5,-52(s0)
    258a:	9fb9                	addw	a5,a5,a4
    258c:	0007871b          	sext.w	a4,a5
    2590:	fac42783          	lw	a5,-84(s0)
    2594:	2781                	sext.w	a5,a5
    2596:	00f74763          	blt	a4,a5,25a4 <sbi_platform_get_features_str+0xde>
    259a:	fac42783          	lw	a5,-84(s0)
    259e:	fef42223          	sw	a5,-28(s0)
    25a2:	a03d                	j	25d0 <sbi_platform_get_features_str+0x10a>
    25a4:	fe442783          	lw	a5,-28(s0)
    25a8:	873e                	mv	a4,a5
    25aa:	fcc42783          	lw	a5,-52(s0)
    25ae:	9fb9                	addw	a5,a5,a4
    25b0:	fef42223          	sw	a5,-28(s0)
    25b4:	fe843783          	ld	a5,-24(s0)
    25b8:	0786                	slli	a5,a5,0x1
    25ba:	fef43423          	sd	a5,-24(s0)
    25be:	fe843703          	ld	a4,-24(s0)
    25c2:	4789                	li	a5,2
    25c4:	f4e7ffe3          	bgeu	a5,a4,2522 <sbi_platform_get_features_str+0x5c>
    25c8:	a021                	j	25d0 <sbi_platform_get_features_str+0x10a>
    25ca:	0001                	nop
    25cc:	a011                	j	25d0 <sbi_platform_get_features_str+0x10a>
    25ce:	0001                	nop
    25d0:	fe442783          	lw	a5,-28(s0)
    25d4:	2781                	sext.w	a5,a5
    25d6:	cb91                	beqz	a5,25ea <sbi_platform_get_features_str+0x124>
    25d8:	fe442783          	lw	a5,-28(s0)
    25dc:	17fd                	addi	a5,a5,-1
    25de:	fb043703          	ld	a4,-80(s0)
    25e2:	97ba                	add	a5,a5,a4
    25e4:	00078023          	sb	zero,0(a5)
    25e8:	a831                	j	2604 <sbi_platform_get_features_str+0x13e>
    25ea:	fac42783          	lw	a5,-84(s0)
    25ee:	863e                	mv	a2,a5
    25f0:	00031597          	auipc	a1,0x31
    25f4:	1f858593          	addi	a1,a1,504 # 337e8 <__func__.0+0x20>
    25f8:	fb043503          	ld	a0,-80(s0)
    25fc:	39f050ef          	jal	819a <sbi_strncpy>
    2600:	a011                	j	2604 <sbi_platform_get_features_str+0x13e>
    2602:	0001                	nop
    2604:	60e6                	ld	ra,88(sp)
    2606:	6446                	ld	s0,80(sp)
    2608:	6125                	addi	sp,sp,96
    260a:	8082                	ret

000000000000260c <sbi_ffs>:
    260c:	7179                	addi	sp,sp,-48
    260e:	f422                	sd	s0,40(sp)
    2610:	1800                	addi	s0,sp,48
    2612:	fca43c23          	sd	a0,-40(s0)
    2616:	fe042623          	sw	zero,-20(s0)
    261a:	fd843703          	ld	a4,-40(s0)
    261e:	57fd                	li	a5,-1
    2620:	9381                	srli	a5,a5,0x20
    2622:	8ff9                	and	a5,a5,a4
    2624:	ef81                	bnez	a5,263c <sbi_ffs+0x30>
    2626:	fec42783          	lw	a5,-20(s0)
    262a:	0207879b          	addiw	a5,a5,32
    262e:	fef42623          	sw	a5,-20(s0)
    2632:	fd843783          	ld	a5,-40(s0)
    2636:	9381                	srli	a5,a5,0x20
    2638:	fcf43c23          	sd	a5,-40(s0)
    263c:	fd843703          	ld	a4,-40(s0)
    2640:	67c1                	lui	a5,0x10
    2642:	17fd                	addi	a5,a5,-1 # ffff <sbi_ecall_base_handler+0x65>
    2644:	8ff9                	and	a5,a5,a4
    2646:	eb99                	bnez	a5,265c <sbi_ffs+0x50>
    2648:	fec42783          	lw	a5,-20(s0)
    264c:	27c1                	addiw	a5,a5,16
    264e:	fef42623          	sw	a5,-20(s0)
    2652:	fd843783          	ld	a5,-40(s0)
    2656:	83c1                	srli	a5,a5,0x10
    2658:	fcf43c23          	sd	a5,-40(s0)
    265c:	fd843783          	ld	a5,-40(s0)
    2660:	0ff7f793          	zext.b	a5,a5
    2664:	eb99                	bnez	a5,267a <sbi_ffs+0x6e>
    2666:	fec42783          	lw	a5,-20(s0)
    266a:	27a1                	addiw	a5,a5,8
    266c:	fef42623          	sw	a5,-20(s0)
    2670:	fd843783          	ld	a5,-40(s0)
    2674:	83a1                	srli	a5,a5,0x8
    2676:	fcf43c23          	sd	a5,-40(s0)
    267a:	fd843783          	ld	a5,-40(s0)
    267e:	8bbd                	andi	a5,a5,15
    2680:	eb99                	bnez	a5,2696 <sbi_ffs+0x8a>
    2682:	fec42783          	lw	a5,-20(s0)
    2686:	2791                	addiw	a5,a5,4
    2688:	fef42623          	sw	a5,-20(s0)
    268c:	fd843783          	ld	a5,-40(s0)
    2690:	8391                	srli	a5,a5,0x4
    2692:	fcf43c23          	sd	a5,-40(s0)
    2696:	fd843783          	ld	a5,-40(s0)
    269a:	8b8d                	andi	a5,a5,3
    269c:	eb99                	bnez	a5,26b2 <sbi_ffs+0xa6>
    269e:	fec42783          	lw	a5,-20(s0)
    26a2:	2789                	addiw	a5,a5,2
    26a4:	fef42623          	sw	a5,-20(s0)
    26a8:	fd843783          	ld	a5,-40(s0)
    26ac:	8389                	srli	a5,a5,0x2
    26ae:	fcf43c23          	sd	a5,-40(s0)
    26b2:	fd843783          	ld	a5,-40(s0)
    26b6:	8b85                	andi	a5,a5,1
    26b8:	e791                	bnez	a5,26c4 <sbi_ffs+0xb8>
    26ba:	fec42783          	lw	a5,-20(s0)
    26be:	2785                	addiw	a5,a5,1
    26c0:	fef42623          	sw	a5,-20(s0)
    26c4:	fec42783          	lw	a5,-20(s0)
    26c8:	853e                	mv	a0,a5
    26ca:	7422                	ld	s0,40(sp)
    26cc:	6145                	addi	sp,sp,48
    26ce:	8082                	ret

00000000000026d0 <sbi_fls>:
    26d0:	7179                	addi	sp,sp,-48
    26d2:	f422                	sd	s0,40(sp)
    26d4:	1800                	addi	s0,sp,48
    26d6:	fca43c23          	sd	a0,-40(s0)
    26da:	03f00793          	li	a5,63
    26de:	fef42623          	sw	a5,-20(s0)
    26e2:	fd843703          	ld	a4,-40(s0)
    26e6:	57fd                	li	a5,-1
    26e8:	9381                	srli	a5,a5,0x20
    26ea:	00e7ec63          	bltu	a5,a4,2702 <sbi_fls+0x32>
    26ee:	fec42783          	lw	a5,-20(s0)
    26f2:	3781                	addiw	a5,a5,-32
    26f4:	fef42623          	sw	a5,-20(s0)
    26f8:	fd843783          	ld	a5,-40(s0)
    26fc:	1782                	slli	a5,a5,0x20
    26fe:	fcf43c23          	sd	a5,-40(s0)
    2702:	fd843703          	ld	a4,-40(s0)
    2706:	57fd                	li	a5,-1
    2708:	83c1                	srli	a5,a5,0x10
    270a:	00e7ec63          	bltu	a5,a4,2722 <sbi_fls+0x52>
    270e:	fec42783          	lw	a5,-20(s0)
    2712:	37c1                	addiw	a5,a5,-16
    2714:	fef42623          	sw	a5,-20(s0)
    2718:	fd843783          	ld	a5,-40(s0)
    271c:	07c2                	slli	a5,a5,0x10
    271e:	fcf43c23          	sd	a5,-40(s0)
    2722:	fd843703          	ld	a4,-40(s0)
    2726:	57fd                	li	a5,-1
    2728:	83a1                	srli	a5,a5,0x8
    272a:	00e7ec63          	bltu	a5,a4,2742 <sbi_fls+0x72>
    272e:	fec42783          	lw	a5,-20(s0)
    2732:	37e1                	addiw	a5,a5,-8
    2734:	fef42623          	sw	a5,-20(s0)
    2738:	fd843783          	ld	a5,-40(s0)
    273c:	07a2                	slli	a5,a5,0x8
    273e:	fcf43c23          	sd	a5,-40(s0)
    2742:	fd843703          	ld	a4,-40(s0)
    2746:	57fd                	li	a5,-1
    2748:	8391                	srli	a5,a5,0x4
    274a:	00e7ec63          	bltu	a5,a4,2762 <sbi_fls+0x92>
    274e:	fec42783          	lw	a5,-20(s0)
    2752:	37f1                	addiw	a5,a5,-4
    2754:	fef42623          	sw	a5,-20(s0)
    2758:	fd843783          	ld	a5,-40(s0)
    275c:	0792                	slli	a5,a5,0x4
    275e:	fcf43c23          	sd	a5,-40(s0)
    2762:	fd843703          	ld	a4,-40(s0)
    2766:	57fd                	li	a5,-1
    2768:	8389                	srli	a5,a5,0x2
    276a:	00e7ec63          	bltu	a5,a4,2782 <sbi_fls+0xb2>
    276e:	fec42783          	lw	a5,-20(s0)
    2772:	37f9                	addiw	a5,a5,-2
    2774:	fef42623          	sw	a5,-20(s0)
    2778:	fd843783          	ld	a5,-40(s0)
    277c:	078a                	slli	a5,a5,0x2
    277e:	fcf43c23          	sd	a5,-40(s0)
    2782:	fd843783          	ld	a5,-40(s0)
    2786:	0007c763          	bltz	a5,2794 <sbi_fls+0xc4>
    278a:	fec42783          	lw	a5,-20(s0)
    278e:	37fd                	addiw	a5,a5,-1
    2790:	fef42623          	sw	a5,-20(s0)
    2794:	fec42783          	lw	a5,-20(s0)
    2798:	853e                	mv	a0,a5
    279a:	7422                	ld	s0,40(sp)
    279c:	6145                	addi	sp,sp,48
    279e:	8082                	ret

00000000000027a0 <__set_bit>:
    27a0:	7179                	addi	sp,sp,-48
    27a2:	f422                	sd	s0,40(sp)
    27a4:	1800                	addi	s0,sp,48
    27a6:	87aa                	mv	a5,a0
    27a8:	fcb43823          	sd	a1,-48(s0)
    27ac:	fcf42e23          	sw	a5,-36(s0)
    27b0:	fdc42783          	lw	a5,-36(s0)
    27b4:	03f7f793          	andi	a5,a5,63
    27b8:	2781                	sext.w	a5,a5
    27ba:	873e                	mv	a4,a5
    27bc:	4785                	li	a5,1
    27be:	00e797b3          	sll	a5,a5,a4
    27c2:	fef43423          	sd	a5,-24(s0)
    27c6:	fdc42783          	lw	a5,-36(s0)
    27ca:	41f7d71b          	sraiw	a4,a5,0x1f
    27ce:	01a7571b          	srliw	a4,a4,0x1a
    27d2:	9fb9                	addw	a5,a5,a4
    27d4:	4067d79b          	sraiw	a5,a5,0x6
    27d8:	2781                	sext.w	a5,a5
    27da:	078e                	slli	a5,a5,0x3
    27dc:	fd043703          	ld	a4,-48(s0)
    27e0:	97ba                	add	a5,a5,a4
    27e2:	fef43023          	sd	a5,-32(s0)
    27e6:	fe043783          	ld	a5,-32(s0)
    27ea:	6398                	ld	a4,0(a5)
    27ec:	fe843783          	ld	a5,-24(s0)
    27f0:	8f5d                	or	a4,a4,a5
    27f2:	fe043783          	ld	a5,-32(s0)
    27f6:	e398                	sd	a4,0(a5)
    27f8:	0001                	nop
    27fa:	7422                	ld	s0,40(sp)
    27fc:	6145                	addi	sp,sp,48
    27fe:	8082                	ret

0000000000002800 <__clear_bit>:
    2800:	7179                	addi	sp,sp,-48
    2802:	f422                	sd	s0,40(sp)
    2804:	1800                	addi	s0,sp,48
    2806:	87aa                	mv	a5,a0
    2808:	fcb43823          	sd	a1,-48(s0)
    280c:	fcf42e23          	sw	a5,-36(s0)
    2810:	fdc42783          	lw	a5,-36(s0)
    2814:	03f7f793          	andi	a5,a5,63
    2818:	2781                	sext.w	a5,a5
    281a:	873e                	mv	a4,a5
    281c:	4785                	li	a5,1
    281e:	00e797b3          	sll	a5,a5,a4
    2822:	fef43423          	sd	a5,-24(s0)
    2826:	fdc42783          	lw	a5,-36(s0)
    282a:	41f7d71b          	sraiw	a4,a5,0x1f
    282e:	01a7571b          	srliw	a4,a4,0x1a
    2832:	9fb9                	addw	a5,a5,a4
    2834:	4067d79b          	sraiw	a5,a5,0x6
    2838:	2781                	sext.w	a5,a5
    283a:	078e                	slli	a5,a5,0x3
    283c:	fd043703          	ld	a4,-48(s0)
    2840:	97ba                	add	a5,a5,a4
    2842:	fef43023          	sd	a5,-32(s0)
    2846:	fe043783          	ld	a5,-32(s0)
    284a:	6398                	ld	a4,0(a5)
    284c:	fe843783          	ld	a5,-24(s0)
    2850:	fff7c793          	not	a5,a5
    2854:	8f7d                	and	a4,a4,a5
    2856:	fe043783          	ld	a5,-32(s0)
    285a:	e398                	sd	a4,0(a5)
    285c:	0001                	nop
    285e:	7422                	ld	s0,40(sp)
    2860:	6145                	addi	sp,sp,48
    2862:	8082                	ret

0000000000002864 <__test_bit>:
    2864:	1101                	addi	sp,sp,-32
    2866:	ec22                	sd	s0,24(sp)
    2868:	1000                	addi	s0,sp,32
    286a:	87aa                	mv	a5,a0
    286c:	feb43023          	sd	a1,-32(s0)
    2870:	fef42623          	sw	a5,-20(s0)
    2874:	fec42783          	lw	a5,-20(s0)
    2878:	41f7d71b          	sraiw	a4,a5,0x1f
    287c:	01a7571b          	srliw	a4,a4,0x1a
    2880:	9fb9                	addw	a5,a5,a4
    2882:	4067d79b          	sraiw	a5,a5,0x6
    2886:	2781                	sext.w	a5,a5
    2888:	078e                	slli	a5,a5,0x3
    288a:	fe043703          	ld	a4,-32(s0)
    288e:	97ba                	add	a5,a5,a4
    2890:	639c                	ld	a5,0(a5)
    2892:	fec42703          	lw	a4,-20(s0)
    2896:	03f77713          	andi	a4,a4,63
    289a:	2701                	sext.w	a4,a4
    289c:	00e7d7b3          	srl	a5,a5,a4
    28a0:	2781                	sext.w	a5,a5
    28a2:	8b85                	andi	a5,a5,1
    28a4:	2781                	sext.w	a5,a5
    28a6:	853e                	mv	a0,a5
    28a8:	6462                	ld	s0,24(sp)
    28aa:	6105                	addi	sp,sp,32
    28ac:	8082                	ret

00000000000028ae <sbi_zalloc>:
    28ae:	1101                	addi	sp,sp,-32
    28b0:	ec06                	sd	ra,24(sp)
    28b2:	e822                	sd	s0,16(sp)
    28b4:	1000                	addi	s0,sp,32
    28b6:	fea43423          	sd	a0,-24(s0)
    28ba:	fe843583          	ld	a1,-24(s0)
    28be:	00080517          	auipc	a0,0x80
    28c2:	c0253503          	ld	a0,-1022(a0) # 824c0 <_GLOBAL_OFFSET_TABLE_+0x108>
    28c6:	692170ef          	jal	19f58 <sbi_zalloc_from>
    28ca:	87aa                	mv	a5,a0
    28cc:	853e                	mv	a0,a5
    28ce:	60e2                	ld	ra,24(sp)
    28d0:	6442                	ld	s0,16(sp)
    28d2:	6105                	addi	sp,sp,32
    28d4:	8082                	ret

00000000000028d6 <sbi_calloc>:
    28d6:	1101                	addi	sp,sp,-32
    28d8:	ec06                	sd	ra,24(sp)
    28da:	e822                	sd	s0,16(sp)
    28dc:	1000                	addi	s0,sp,32
    28de:	fea43423          	sd	a0,-24(s0)
    28e2:	feb43023          	sd	a1,-32(s0)
    28e6:	fe843703          	ld	a4,-24(s0)
    28ea:	fe043783          	ld	a5,-32(s0)
    28ee:	02f707b3          	mul	a5,a4,a5
    28f2:	853e                	mv	a0,a5
    28f4:	fbbff0ef          	jal	28ae <sbi_zalloc>
    28f8:	87aa                	mv	a5,a0
    28fa:	853e                	mv	a0,a5
    28fc:	60e2                	ld	ra,24(sp)
    28fe:	6442                	ld	s0,16(sp)
    2900:	6105                	addi	sp,sp,32
    2902:	8082                	ret

0000000000002904 <sbi_free>:
    2904:	1101                	addi	sp,sp,-32
    2906:	ec06                	sd	ra,24(sp)
    2908:	e822                	sd	s0,16(sp)
    290a:	1000                	addi	s0,sp,32
    290c:	fea43423          	sd	a0,-24(s0)
    2910:	fe843583          	ld	a1,-24(s0)
    2914:	00080517          	auipc	a0,0x80
    2918:	bac53503          	ld	a0,-1108(a0) # 824c0 <_GLOBAL_OFFSET_TABLE_+0x108>
    291c:	67e170ef          	jal	19f9a <sbi_free_from>
    2920:	60e2                	ld	ra,24(sp)
    2922:	6442                	ld	s0,16(sp)
    2924:	6105                	addi	sp,sp,32
    2926:	8082                	ret

0000000000002928 <sbi_platform_pmu_init>:
    2928:	1101                	addi	sp,sp,-32
    292a:	ec06                	sd	ra,24(sp)
    292c:	e822                	sd	s0,16(sp)
    292e:	1000                	addi	s0,sp,32
    2930:	fea43423          	sd	a0,-24(s0)
    2934:	fe843783          	ld	a5,-24(s0)
    2938:	cf89                	beqz	a5,2952 <sbi_platform_pmu_init+0x2a>
    293a:	fe843783          	ld	a5,-24(s0)
    293e:	73bc                	ld	a5,96(a5)
    2940:	6bbc                	ld	a5,80(a5)
    2942:	cb81                	beqz	a5,2952 <sbi_platform_pmu_init+0x2a>
    2944:	fe843783          	ld	a5,-24(s0)
    2948:	73bc                	ld	a5,96(a5)
    294a:	6bbc                	ld	a5,80(a5)
    294c:	9782                	jalr	a5
    294e:	87aa                	mv	a5,a0
    2950:	a011                	j	2954 <sbi_platform_pmu_init+0x2c>
    2952:	4781                	li	a5,0
    2954:	853e                	mv	a0,a5
    2956:	60e2                	ld	ra,24(sp)
    2958:	6442                	ld	s0,16(sp)
    295a:	6105                	addi	sp,sp,32
    295c:	8082                	ret

000000000000295e <sbi_platform_pmu_xlate_to_mhpmevent>:
    295e:	7179                	addi	sp,sp,-48
    2960:	f406                	sd	ra,40(sp)
    2962:	f022                	sd	s0,32(sp)
    2964:	1800                	addi	s0,sp,48
    2966:	fea43423          	sd	a0,-24(s0)
    296a:	87ae                	mv	a5,a1
    296c:	fcc43c23          	sd	a2,-40(s0)
    2970:	fef42223          	sw	a5,-28(s0)
    2974:	fe843783          	ld	a5,-24(s0)
    2978:	c395                	beqz	a5,299c <sbi_platform_pmu_xlate_to_mhpmevent+0x3e>
    297a:	fe843783          	ld	a5,-24(s0)
    297e:	73bc                	ld	a5,96(a5)
    2980:	6fbc                	ld	a5,88(a5)
    2982:	cf89                	beqz	a5,299c <sbi_platform_pmu_xlate_to_mhpmevent+0x3e>
    2984:	fe843783          	ld	a5,-24(s0)
    2988:	73bc                	ld	a5,96(a5)
    298a:	6fbc                	ld	a5,88(a5)
    298c:	fe442703          	lw	a4,-28(s0)
    2990:	fd843583          	ld	a1,-40(s0)
    2994:	853a                	mv	a0,a4
    2996:	9782                	jalr	a5
    2998:	87aa                	mv	a5,a0
    299a:	a011                	j	299e <sbi_platform_pmu_xlate_to_mhpmevent+0x40>
    299c:	4781                	li	a5,0
    299e:	853e                	mv	a0,a5
    29a0:	70a2                	ld	ra,40(sp)
    29a2:	7402                	ld	s0,32(sp)
    29a4:	6145                	addi	sp,sp,48
    29a6:	8082                	ret

00000000000029a8 <pmu_event_range_overlap>:
    29a8:	1101                	addi	sp,sp,-32
    29aa:	ec22                	sd	s0,24(sp)
    29ac:	1000                	addi	s0,sp,32
    29ae:	fea43423          	sd	a0,-24(s0)
    29b2:	feb43023          	sd	a1,-32(s0)
    29b6:	fe843783          	ld	a5,-24(s0)
    29ba:	4798                	lw	a4,8(a5)
    29bc:	fe043783          	ld	a5,-32(s0)
    29c0:	43dc                	lw	a5,4(a5)
    29c2:	00f77a63          	bgeu	a4,a5,29d6 <pmu_event_range_overlap+0x2e>
    29c6:	fe843783          	ld	a5,-24(s0)
    29ca:	4798                	lw	a4,8(a5)
    29cc:	fe043783          	ld	a5,-32(s0)
    29d0:	479c                	lw	a5,8(a5)
    29d2:	02f76263          	bltu	a4,a5,29f6 <pmu_event_range_overlap+0x4e>
    29d6:	fe843783          	ld	a5,-24(s0)
    29da:	43d8                	lw	a4,4(a5)
    29dc:	fe043783          	ld	a5,-32(s0)
    29e0:	43dc                	lw	a5,4(a5)
    29e2:	00e7fc63          	bgeu	a5,a4,29fa <pmu_event_range_overlap+0x52>
    29e6:	fe843783          	ld	a5,-24(s0)
    29ea:	43d8                	lw	a4,4(a5)
    29ec:	fe043783          	ld	a5,-32(s0)
    29f0:	479c                	lw	a5,8(a5)
    29f2:	00e7f463          	bgeu	a5,a4,29fa <pmu_event_range_overlap+0x52>
    29f6:	4781                	li	a5,0
    29f8:	a011                	j	29fc <pmu_event_range_overlap+0x54>
    29fa:	4785                	li	a5,1
    29fc:	853e                	mv	a0,a5
    29fe:	6462                	ld	s0,24(sp)
    2a00:	6105                	addi	sp,sp,32
    2a02:	8082                	ret

0000000000002a04 <pmu_event_select_overlap>:
    2a04:	7179                	addi	sp,sp,-48
    2a06:	f422                	sd	s0,40(sp)
    2a08:	1800                	addi	s0,sp,48
    2a0a:	fea43423          	sd	a0,-24(s0)
    2a0e:	feb43023          	sd	a1,-32(s0)
    2a12:	fcc43c23          	sd	a2,-40(s0)
    2a16:	fe843783          	ld	a5,-24(s0)
    2a1a:	6b9c                	ld	a5,16(a5)
    2a1c:	fe043703          	ld	a4,-32(s0)
    2a20:	00f71b63          	bne	a4,a5,2a36 <pmu_event_select_overlap+0x32>
    2a24:	fe843783          	ld	a5,-24(s0)
    2a28:	6f9c                	ld	a5,24(a5)
    2a2a:	fd843703          	ld	a4,-40(s0)
    2a2e:	00f71463          	bne	a4,a5,2a36 <pmu_event_select_overlap+0x32>
    2a32:	4785                	li	a5,1
    2a34:	a011                	j	2a38 <pmu_event_select_overlap+0x34>
    2a36:	4781                	li	a5,0
    2a38:	853e                	mv	a0,a5
    2a3a:	7422                	ld	s0,40(sp)
    2a3c:	6145                	addi	sp,sp,48
    2a3e:	8082                	ret

0000000000002a40 <pmu_event_validate>:
    2a40:	715d                	addi	sp,sp,-80
    2a42:	e486                	sd	ra,72(sp)
    2a44:	e0a2                	sd	s0,64(sp)
    2a46:	0880                	addi	s0,sp,80
    2a48:	fca43423          	sd	a0,-56(s0)
    2a4c:	fcb43023          	sd	a1,-64(s0)
    2a50:	fac43c23          	sd	a2,-72(s0)
    2a54:	fc043783          	ld	a5,-64(s0)
    2a58:	83c1                	srli	a5,a5,0x10
    2a5a:	2781                	sext.w	a5,a5
    2a5c:	8bbd                	andi	a5,a5,15
    2a5e:	fef42423          	sw	a5,-24(s0)
    2a62:	fc043783          	ld	a5,-64(s0)
    2a66:	2781                	sext.w	a5,a5
    2a68:	873e                	mv	a4,a5
    2a6a:	67c1                	lui	a5,0x10
    2a6c:	17fd                	addi	a5,a5,-1 # ffff <sbi_ecall_base_handler+0x65>
    2a6e:	8ff9                	and	a5,a5,a4
    2a70:	fef42223          	sw	a5,-28(s0)
    2a74:	57fd                	li	a5,-1
    2a76:	fef42623          	sw	a5,-20(s0)
    2a7a:	fe842783          	lw	a5,-24(s0)
    2a7e:	0007871b          	sext.w	a4,a5
    2a82:	47bd                	li	a5,15
    2a84:	04f70763          	beq	a4,a5,2ad2 <pmu_event_validate+0x92>
    2a88:	fe842783          	lw	a5,-24(s0)
    2a8c:	0007871b          	sext.w	a4,a5
    2a90:	47bd                	li	a5,15
    2a92:	12e7e663          	bltu	a5,a4,2bbe <pmu_event_validate+0x17e>
    2a96:	fe842783          	lw	a5,-24(s0)
    2a9a:	0007871b          	sext.w	a4,a5
    2a9e:	4789                	li	a5,2
    2aa0:	10f70b63          	beq	a4,a5,2bb6 <pmu_event_validate+0x176>
    2aa4:	fe842783          	lw	a5,-24(s0)
    2aa8:	0007871b          	sext.w	a4,a5
    2aac:	4789                	li	a5,2
    2aae:	10e7e863          	bltu	a5,a4,2bbe <pmu_event_validate+0x17e>
    2ab2:	fe842783          	lw	a5,-24(s0)
    2ab6:	2781                	sext.w	a5,a5
    2ab8:	cb89                	beqz	a5,2aca <pmu_event_validate+0x8a>
    2aba:	fe842783          	lw	a5,-24(s0)
    2abe:	0007871b          	sext.w	a4,a5
    2ac2:	4785                	li	a5,1
    2ac4:	08f70763          	beq	a4,a5,2b52 <pmu_event_validate+0x112>
    2ac8:	a8dd                	j	2bbe <pmu_event_validate+0x17e>
    2aca:	47ad                	li	a5,11
    2acc:	fef42623          	sw	a5,-20(s0)
    2ad0:	a8cd                	j	2bc2 <pmu_event_validate+0x182>
    2ad2:	fe442783          	lw	a5,-28(s0)
    2ad6:	0007871b          	sext.w	a4,a5
    2ada:	47d5                	li	a5,21
    2adc:	00e7fa63          	bgeu	a5,a4,2af0 <pmu_event_validate+0xb0>
    2ae0:	fe442783          	lw	a5,-28(s0)
    2ae4:	0007871b          	sext.w	a4,a5
    2ae8:	67c1                	lui	a5,0x10
    2aea:	17f9                	addi	a5,a5,-2 # fffe <sbi_ecall_base_handler+0x64>
    2aec:	00e7f963          	bgeu	a5,a4,2afe <pmu_event_validate+0xbe>
    2af0:	fe442783          	lw	a5,-28(s0)
    2af4:	0007871b          	sext.w	a4,a5
    2af8:	67c1                	lui	a5,0x10
    2afa:	00f76463          	bltu	a4,a5,2b02 <pmu_event_validate+0xc2>
    2afe:	57f5                	li	a5,-3
    2b00:	a8f1                	j	2bdc <pmu_event_validate+0x19c>
    2b02:	fe442783          	lw	a5,-28(s0)
    2b06:	0007871b          	sext.w	a4,a5
    2b0a:	67c1                	lui	a5,0x10
    2b0c:	17fd                	addi	a5,a5,-1 # ffff <sbi_ecall_base_handler+0x65>
    2b0e:	02f71e63          	bne	a4,a5,2b4a <pmu_event_validate+0x10a>
    2b12:	00080797          	auipc	a5,0x80
    2b16:	72678793          	addi	a5,a5,1830 # 83238 <pmu_dev>
    2b1a:	639c                	ld	a5,0(a5)
    2b1c:	c79d                	beqz	a5,2b4a <pmu_event_validate+0x10a>
    2b1e:	00080797          	auipc	a5,0x80
    2b22:	71a78793          	addi	a5,a5,1818 # 83238 <pmu_dev>
    2b26:	639c                	ld	a5,0(a5)
    2b28:	739c                	ld	a5,32(a5)
    2b2a:	c385                	beqz	a5,2b4a <pmu_event_validate+0x10a>
    2b2c:	00080797          	auipc	a5,0x80
    2b30:	70c78793          	addi	a5,a5,1804 # 83238 <pmu_dev>
    2b34:	639c                	ld	a5,0(a5)
    2b36:	739c                	ld	a5,32(a5)
    2b38:	fc843703          	ld	a4,-56(s0)
    2b3c:	4318                	lw	a4,0(a4)
    2b3e:	fb843583          	ld	a1,-72(s0)
    2b42:	853a                	mv	a0,a4
    2b44:	9782                	jalr	a5
    2b46:	87aa                	mv	a5,a0
    2b48:	a851                	j	2bdc <pmu_event_validate+0x19c>
    2b4a:	47d9                	li	a5,22
    2b4c:	fef42623          	sw	a5,-20(s0)
    2b50:	a88d                	j	2bc2 <pmu_event_validate+0x182>
    2b52:	fe442783          	lw	a5,-28(s0)
    2b56:	8b85                	andi	a5,a5,1
    2b58:	fef42023          	sw	a5,-32(s0)
    2b5c:	fe442783          	lw	a5,-28(s0)
    2b60:	0017d79b          	srliw	a5,a5,0x1
    2b64:	2781                	sext.w	a5,a5
    2b66:	8b8d                	andi	a5,a5,3
    2b68:	fcf42e23          	sw	a5,-36(s0)
    2b6c:	fe442783          	lw	a5,-28(s0)
    2b70:	0037d79b          	srliw	a5,a5,0x3
    2b74:	2781                	sext.w	a5,a5
    2b76:	873e                	mv	a4,a5
    2b78:	6789                	lui	a5,0x2
    2b7a:	17fd                	addi	a5,a5,-1 # 1fff <sbi_ipi_process+0x37>
    2b7c:	8ff9                	and	a5,a5,a4
    2b7e:	fcf42c23          	sw	a5,-40(s0)
    2b82:	fe042783          	lw	a5,-32(s0)
    2b86:	0007871b          	sext.w	a4,a5
    2b8a:	4785                	li	a5,1
    2b8c:	02e7e363          	bltu	a5,a4,2bb2 <pmu_event_validate+0x172>
    2b90:	fdc42783          	lw	a5,-36(s0)
    2b94:	0007871b          	sext.w	a4,a5
    2b98:	4789                	li	a5,2
    2b9a:	00e7ec63          	bltu	a5,a4,2bb2 <pmu_event_validate+0x172>
    2b9e:	fd842783          	lw	a5,-40(s0)
    2ba2:	0007871b          	sext.w	a4,a5
    2ba6:	4799                	li	a5,6
    2ba8:	00e7e563          	bltu	a5,a4,2bb2 <pmu_event_validate+0x172>
    2bac:	fe842783          	lw	a5,-24(s0)
    2bb0:	a035                	j	2bdc <pmu_event_validate+0x19c>
    2bb2:	57f5                	li	a5,-3
    2bb4:	a025                	j	2bdc <pmu_event_validate+0x19c>
    2bb6:	4785                	li	a5,1
    2bb8:	fef42623          	sw	a5,-20(s0)
    2bbc:	a019                	j	2bc2 <pmu_event_validate+0x182>
    2bbe:	57f5                	li	a5,-3
    2bc0:	a831                	j	2bdc <pmu_event_validate+0x19c>
    2bc2:	fe442783          	lw	a5,-28(s0)
    2bc6:	873e                	mv	a4,a5
    2bc8:	fec42783          	lw	a5,-20(s0)
    2bcc:	2701                	sext.w	a4,a4
    2bce:	2781                	sext.w	a5,a5
    2bd0:	00f77563          	bgeu	a4,a5,2bda <pmu_event_validate+0x19a>
    2bd4:	fe842783          	lw	a5,-24(s0)
    2bd8:	a011                	j	2bdc <pmu_event_validate+0x19c>
    2bda:	57f5                	li	a5,-3
    2bdc:	853e                	mv	a0,a5
    2bde:	60a6                	ld	ra,72(sp)
    2be0:	6406                	ld	s0,64(sp)
    2be2:	6161                	addi	sp,sp,80
    2be4:	8082                	ret

0000000000002be6 <pmu_ctr_validate>:
    2be6:	7139                	addi	sp,sp,-64
    2be8:	fc22                	sd	s0,56(sp)
    2bea:	0080                	addi	s0,sp,64
    2bec:	fca43c23          	sd	a0,-40(s0)
    2bf0:	87ae                	mv	a5,a1
    2bf2:	fcc43423          	sd	a2,-56(s0)
    2bf6:	fcf42a23          	sw	a5,-44(s0)
    2bfa:	00080797          	auipc	a5,0x80
    2bfe:	65678793          	addi	a5,a5,1622 # 83250 <total_ctrs>
    2c02:	4398                	lw	a4,0(a5)
    2c04:	fd442783          	lw	a5,-44(s0)
    2c08:	2781                	sext.w	a5,a5
    2c0a:	00e7e463          	bltu	a5,a4,2c12 <pmu_ctr_validate+0x2c>
    2c0e:	57f5                	li	a5,-3
    2c10:	a8b9                	j	2c6e <pmu_ctr_validate+0x88>
    2c12:	fd843703          	ld	a4,-40(s0)
    2c16:	fd446783          	lwu	a5,-44(s0)
    2c1a:	078a                	slli	a5,a5,0x2
    2c1c:	97ba                	add	a5,a5,a4
    2c1e:	43dc                	lw	a5,4(a5)
    2c20:	fef42623          	sw	a5,-20(s0)
    2c24:	fec42783          	lw	a5,-20(s0)
    2c28:	0107d79b          	srliw	a5,a5,0x10
    2c2c:	2781                	sext.w	a5,a5
    2c2e:	8bbd                	andi	a5,a5,15
    2c30:	fef42423          	sw	a5,-24(s0)
    2c34:	fec42783          	lw	a5,-20(s0)
    2c38:	0007871b          	sext.w	a4,a5
    2c3c:	57fd                	li	a5,-1
    2c3e:	00f70963          	beq	a4,a5,2c50 <pmu_ctr_validate+0x6a>
    2c42:	fe842783          	lw	a5,-24(s0)
    2c46:	0007871b          	sext.w	a4,a5
    2c4a:	47bd                	li	a5,15
    2c4c:	00e7f463          	bgeu	a5,a4,2c54 <pmu_ctr_validate+0x6e>
    2c50:	57f5                	li	a5,-3
    2c52:	a831                	j	2c6e <pmu_ctr_validate+0x88>
    2c54:	fec42783          	lw	a5,-20(s0)
    2c58:	873e                	mv	a4,a5
    2c5a:	67c1                	lui	a5,0x10
    2c5c:	17fd                	addi	a5,a5,-1 # ffff <sbi_ecall_base_handler+0x65>
    2c5e:	8ff9                	and	a5,a5,a4
    2c60:	0007871b          	sext.w	a4,a5
    2c64:	fc843783          	ld	a5,-56(s0)
    2c68:	c398                	sw	a4,0(a5)
    2c6a:	fe842783          	lw	a5,-24(s0)
    2c6e:	853e                	mv	a0,a5
    2c70:	7462                	ld	s0,56(sp)
    2c72:	6121                	addi	sp,sp,64
    2c74:	8082                	ret

0000000000002c76 <sbi_pmu_ctr_fw_read>:
    2c76:	7139                	addi	sp,sp,-64
    2c78:	fc06                	sd	ra,56(sp)
    2c7a:	f822                	sd	s0,48(sp)
    2c7c:	f426                	sd	s1,40(sp)
    2c7e:	0080                	addi	s0,sp,64
    2c80:	87aa                	mv	a5,a0
    2c82:	fcb43023          	sd	a1,-64(s0)
    2c86:	fcf42623          	sw	a5,-52(s0)
    2c8a:	00080797          	auipc	a5,0x80
    2c8e:	5a678793          	addi	a5,a5,1446 # 83230 <phs_ptr_offset>
    2c92:	639c                	ld	a5,0(a5)
    2c94:	cf89                	beqz	a5,2cae <sbi_pmu_ctr_fw_read+0x38>
    2c96:	340027f3          	csrr	a5,mscratch
    2c9a:	84be                	mv	s1,a5
    2c9c:	8726                	mv	a4,s1
    2c9e:	00080797          	auipc	a5,0x80
    2ca2:	59278793          	addi	a5,a5,1426 # 83230 <phs_ptr_offset>
    2ca6:	639c                	ld	a5,0(a5)
    2ca8:	97ba                	add	a5,a5,a4
    2caa:	639c                	ld	a5,0(a5)
    2cac:	a011                	j	2cb0 <sbi_pmu_ctr_fw_read+0x3a>
    2cae:	4781                	li	a5,0
    2cb0:	fcf43c23          	sd	a5,-40(s0)
    2cb4:	fd843783          	ld	a5,-40(s0)
    2cb8:	0017b793          	seqz	a5,a5
    2cbc:	0ff7f793          	zext.b	a5,a5
    2cc0:	c399                	beqz	a5,2cc6 <sbi_pmu_ctr_fw_read+0x50>
    2cc2:	57f5                	li	a5,-3
    2cc4:	a0f5                	j	2db0 <sbi_pmu_ctr_fw_read+0x13a>
    2cc6:	fd040713          	addi	a4,s0,-48
    2cca:	fcc42783          	lw	a5,-52(s0)
    2cce:	863a                	mv	a2,a4
    2cd0:	85be                	mv	a1,a5
    2cd2:	fd843503          	ld	a0,-40(s0)
    2cd6:	f11ff0ef          	jal	2be6 <pmu_ctr_validate>
    2cda:	87aa                	mv	a5,a0
    2cdc:	fcf42a23          	sw	a5,-44(s0)
    2ce0:	fd442783          	lw	a5,-44(s0)
    2ce4:	0007871b          	sext.w	a4,a5
    2ce8:	47bd                	li	a5,15
    2cea:	00f70463          	beq	a4,a5,2cf2 <sbi_pmu_ctr_fw_read+0x7c>
    2cee:	57f5                	li	a5,-3
    2cf0:	a0c1                	j	2db0 <sbi_pmu_ctr_fw_read+0x13a>
    2cf2:	fd042783          	lw	a5,-48(s0)
    2cf6:	873e                	mv	a4,a5
    2cf8:	47d5                	li	a5,21
    2cfa:	00e7f963          	bgeu	a5,a4,2d0c <sbi_pmu_ctr_fw_read+0x96>
    2cfe:	fd042783          	lw	a5,-48(s0)
    2d02:	873e                	mv	a4,a5
    2d04:	67c1                	lui	a5,0x10
    2d06:	17f9                	addi	a5,a5,-2 # fffe <sbi_ecall_base_handler+0x64>
    2d08:	00e7f863          	bgeu	a5,a4,2d18 <sbi_pmu_ctr_fw_read+0xa2>
    2d0c:	fd042783          	lw	a5,-48(s0)
    2d10:	873e                	mv	a4,a5
    2d12:	67c1                	lui	a5,0x10
    2d14:	00f76463          	bltu	a4,a5,2d1c <sbi_pmu_ctr_fw_read+0xa6>
    2d18:	57f5                	li	a5,-3
    2d1a:	a859                	j	2db0 <sbi_pmu_ctr_fw_read+0x13a>
    2d1c:	fd042783          	lw	a5,-48(s0)
    2d20:	873e                	mv	a4,a5
    2d22:	67c1                	lui	a5,0x10
    2d24:	17fd                	addi	a5,a5,-1 # ffff <sbi_ecall_base_handler+0x65>
    2d26:	04f71f63          	bne	a4,a5,2d84 <sbi_pmu_ctr_fw_read+0x10e>
    2d2a:	00080797          	auipc	a5,0x80
    2d2e:	50e78793          	addi	a5,a5,1294 # 83238 <pmu_dev>
    2d32:	639c                	ld	a5,0(a5)
    2d34:	c3b9                	beqz	a5,2d7a <sbi_pmu_ctr_fw_read+0x104>
    2d36:	00080797          	auipc	a5,0x80
    2d3a:	50278793          	addi	a5,a5,1282 # 83238 <pmu_dev>
    2d3e:	639c                	ld	a5,0(a5)
    2d40:	7f9c                	ld	a5,56(a5)
    2d42:	cf85                	beqz	a5,2d7a <sbi_pmu_ctr_fw_read+0x104>
    2d44:	00080797          	auipc	a5,0x80
    2d48:	4f478793          	addi	a5,a5,1268 # 83238 <pmu_dev>
    2d4c:	639c                	ld	a5,0(a5)
    2d4e:	7f9c                	ld	a5,56(a5)
    2d50:	fd843703          	ld	a4,-40(s0)
    2d54:	4314                	lw	a3,0(a4)
    2d56:	00080717          	auipc	a4,0x80
    2d5a:	4f670713          	addi	a4,a4,1270 # 8324c <num_hw_ctrs>
    2d5e:	4318                	lw	a4,0(a4)
    2d60:	fcc42603          	lw	a2,-52(s0)
    2d64:	40e6073b          	subw	a4,a2,a4
    2d68:	2701                	sext.w	a4,a4
    2d6a:	85ba                	mv	a1,a4
    2d6c:	8536                	mv	a0,a3
    2d6e:	9782                	jalr	a5
    2d70:	872a                	mv	a4,a0
    2d72:	fc043783          	ld	a5,-64(s0)
    2d76:	e398                	sd	a4,0(a5)
    2d78:	a81d                	j	2dae <sbi_pmu_ctr_fw_read+0x138>
    2d7a:	fc043783          	ld	a5,-64(s0)
    2d7e:	0007b023          	sd	zero,0(a5)
    2d82:	a035                	j	2dae <sbi_pmu_ctr_fw_read+0x138>
    2d84:	00080797          	auipc	a5,0x80
    2d88:	4c878793          	addi	a5,a5,1224 # 8324c <num_hw_ctrs>
    2d8c:	439c                	lw	a5,0(a5)
    2d8e:	fcc42703          	lw	a4,-52(s0)
    2d92:	40f707bb          	subw	a5,a4,a5
    2d96:	2781                	sext.w	a5,a5
    2d98:	fd843703          	ld	a4,-40(s0)
    2d9c:	1782                	slli	a5,a5,0x20
    2d9e:	9381                	srli	a5,a5,0x20
    2da0:	07e9                	addi	a5,a5,26
    2da2:	078e                	slli	a5,a5,0x3
    2da4:	97ba                	add	a5,a5,a4
    2da6:	6798                	ld	a4,8(a5)
    2da8:	fc043783          	ld	a5,-64(s0)
    2dac:	e398                	sd	a4,0(a5)
    2dae:	4781                	li	a5,0
    2db0:	853e                	mv	a0,a5
    2db2:	70e2                	ld	ra,56(sp)
    2db4:	7442                	ld	s0,48(sp)
    2db6:	74a2                	ld	s1,40(sp)
    2db8:	6121                	addi	sp,sp,64
    2dba:	8082                	ret

0000000000002dbc <pmu_add_hw_event_map>:
    2dbc:	715d                	addi	sp,sp,-80
    2dbe:	e486                	sd	ra,72(sp)
    2dc0:	e0a2                	sd	s0,64(sp)
    2dc2:	0880                	addi	s0,sp,80
    2dc4:	87aa                	mv	a5,a0
    2dc6:	fad43c23          	sd	a3,-72(s0)
    2dca:	fae43823          	sd	a4,-80(s0)
    2dce:	fcf42623          	sw	a5,-52(s0)
    2dd2:	87ae                	mv	a5,a1
    2dd4:	fcf42423          	sw	a5,-56(s0)
    2dd8:	87b2                	mv	a5,a2
    2dda:	fcf42223          	sw	a5,-60(s0)
    2dde:	fe042623          	sw	zero,-20(s0)
    2de2:	00080797          	auipc	a5,0x80
    2de6:	45e78793          	addi	a5,a5,1118 # 83240 <hw_event_map>
    2dea:	6398                	ld	a4,0(a5)
    2dec:	00080797          	auipc	a5,0x80
    2df0:	45c78793          	addi	a5,a5,1116 # 83248 <num_hw_events>
    2df4:	439c                	lw	a5,0(a5)
    2df6:	1782                	slli	a5,a5,0x20
    2df8:	9381                	srli	a5,a5,0x20
    2dfa:	0796                	slli	a5,a5,0x5
    2dfc:	97ba                	add	a5,a5,a4
    2dfe:	fef43023          	sd	a5,-32(s0)
    2e02:	340027f3          	csrr	a5,mscratch
    2e06:	80be                	mv	ra,a5
    2e08:	8786                	mv	a5,ra
    2e0a:	fcf43c23          	sd	a5,-40(s0)
    2e0e:	fd843503          	ld	a0,-40(s0)
    2e12:	222120ef          	jal	15034 <sbi_hart_mhpm_mask>
    2e16:	87aa                	mv	a5,a0
    2e18:	2781                	sext.w	a5,a5
    2e1a:	0077e793          	ori	a5,a5,7
    2e1e:	fcf42a23          	sw	a5,-44(s0)
    2e22:	fcc42783          	lw	a5,-52(s0)
    2e26:	0007871b          	sext.w	a4,a5
    2e2a:	4789                	li	a5,2
    2e2c:	00e7f963          	bgeu	a5,a4,2e3e <pmu_add_hw_event_map+0x82>
    2e30:	fc442783          	lw	a5,-60(s0)
    2e34:	8b9d                	andi	a5,a5,7
    2e36:	2781                	sext.w	a5,a5
    2e38:	c399                	beqz	a5,2e3e <pmu_add_hw_event_map+0x82>
    2e3a:	57f1                	li	a5,-4
    2e3c:	aa39                	j	2f5a <pmu_add_hw_event_map+0x19e>
    2e3e:	00080797          	auipc	a5,0x80
    2e42:	40a78793          	addi	a5,a5,1034 # 83248 <num_hw_events>
    2e46:	439c                	lw	a5,0(a5)
    2e48:	873e                	mv	a4,a5
    2e4a:	0fe00793          	li	a5,254
    2e4e:	00e7fc63          	bgeu	a5,a4,2e66 <pmu_add_hw_event_map+0xaa>
    2e52:	10000593          	li	a1,256
    2e56:	00031517          	auipc	a0,0x31
    2e5a:	99a50513          	addi	a0,a0,-1638 # 337f0 <__func__.0+0x28>
    2e5e:	31f0e0ef          	jal	1197c <sbi_printf>
    2e62:	57fd                	li	a5,-1
    2e64:	a8dd                	j	2f5a <pmu_add_hw_event_map+0x19e>
    2e66:	fe043783          	ld	a5,-32(s0)
    2e6a:	fcc42703          	lw	a4,-52(s0)
    2e6e:	c3d8                	sw	a4,4(a5)
    2e70:	fe043783          	ld	a5,-32(s0)
    2e74:	fc842703          	lw	a4,-56(s0)
    2e78:	c798                	sw	a4,8(a5)
    2e7a:	fe042623          	sw	zero,-20(s0)
    2e7e:	a0bd                	j	2eec <pmu_add_hw_event_map+0x130>
    2e80:	fcc42783          	lw	a5,-52(s0)
    2e84:	0007871b          	sext.w	a4,a5
    2e88:	000207b7          	lui	a5,0x20
    2e8c:	02f71663          	bne	a4,a5,2eb8 <pmu_add_hw_event_map+0xfc>
    2e90:	00080797          	auipc	a5,0x80
    2e94:	3b078793          	addi	a5,a5,944 # 83240 <hw_event_map>
    2e98:	6398                	ld	a4,0(a5)
    2e9a:	fec42783          	lw	a5,-20(s0)
    2e9e:	0796                	slli	a5,a5,0x5
    2ea0:	97ba                	add	a5,a5,a4
    2ea2:	fb043603          	ld	a2,-80(s0)
    2ea6:	fb843583          	ld	a1,-72(s0)
    2eaa:	853e                	mv	a0,a5
    2eac:	b59ff0ef          	jal	2a04 <pmu_event_select_overlap>
    2eb0:	87aa                	mv	a5,a0
    2eb2:	fef42423          	sw	a5,-24(s0)
    2eb6:	a015                	j	2eda <pmu_add_hw_event_map+0x11e>
    2eb8:	00080797          	auipc	a5,0x80
    2ebc:	38878793          	addi	a5,a5,904 # 83240 <hw_event_map>
    2ec0:	6398                	ld	a4,0(a5)
    2ec2:	fec42783          	lw	a5,-20(s0)
    2ec6:	0796                	slli	a5,a5,0x5
    2ec8:	97ba                	add	a5,a5,a4
    2eca:	fe043583          	ld	a1,-32(s0)
    2ece:	853e                	mv	a0,a5
    2ed0:	ad9ff0ef          	jal	29a8 <pmu_event_range_overlap>
    2ed4:	87aa                	mv	a5,a0
    2ed6:	fef42423          	sw	a5,-24(s0)
    2eda:	fe842783          	lw	a5,-24(s0)
    2ede:	2781                	sext.w	a5,a5
    2ee0:	e3bd                	bnez	a5,2f46 <pmu_add_hw_event_map+0x18a>
    2ee2:	fec42783          	lw	a5,-20(s0)
    2ee6:	2785                	addiw	a5,a5,1
    2ee8:	fef42623          	sw	a5,-20(s0)
    2eec:	fec42703          	lw	a4,-20(s0)
    2ef0:	00080797          	auipc	a5,0x80
    2ef4:	35878793          	addi	a5,a5,856 # 83248 <num_hw_events>
    2ef8:	439c                	lw	a5,0(a5)
    2efa:	f8f763e3          	bltu	a4,a5,2e80 <pmu_add_hw_event_map+0xc4>
    2efe:	fe043783          	ld	a5,-32(s0)
    2f02:	fb043703          	ld	a4,-80(s0)
    2f06:	ef98                	sd	a4,24(a5)
    2f08:	fc442783          	lw	a5,-60(s0)
    2f0c:	873e                	mv	a4,a5
    2f0e:	fd442783          	lw	a5,-44(s0)
    2f12:	8ff9                	and	a5,a5,a4
    2f14:	0007871b          	sext.w	a4,a5
    2f18:	fe043783          	ld	a5,-32(s0)
    2f1c:	c398                	sw	a4,0(a5)
    2f1e:	fe043783          	ld	a5,-32(s0)
    2f22:	fb843703          	ld	a4,-72(s0)
    2f26:	eb98                	sd	a4,16(a5)
    2f28:	00080797          	auipc	a5,0x80
    2f2c:	32078793          	addi	a5,a5,800 # 83248 <num_hw_events>
    2f30:	439c                	lw	a5,0(a5)
    2f32:	2785                	addiw	a5,a5,1
    2f34:	0007871b          	sext.w	a4,a5
    2f38:	00080797          	auipc	a5,0x80
    2f3c:	31078793          	addi	a5,a5,784 # 83248 <num_hw_events>
    2f40:	c398                	sw	a4,0(a5)
    2f42:	4781                	li	a5,0
    2f44:	a819                	j	2f5a <pmu_add_hw_event_map+0x19e>
    2f46:	0001                	nop
    2f48:	fe043783          	ld	a5,-32(s0)
    2f4c:	0007a223          	sw	zero,4(a5)
    2f50:	fe043783          	ld	a5,-32(s0)
    2f54:	0007a423          	sw	zero,8(a5)
    2f58:	57f5                	li	a5,-3
    2f5a:	853e                	mv	a0,a5
    2f5c:	60a6                	ld	ra,72(sp)
    2f5e:	6406                	ld	s0,64(sp)
    2f60:	6161                	addi	sp,sp,80
    2f62:	8082                	ret

0000000000002f64 <sbi_pmu_add_hw_event_counter_map>:
    2f64:	1101                	addi	sp,sp,-32
    2f66:	ec06                	sd	ra,24(sp)
    2f68:	e822                	sd	s0,16(sp)
    2f6a:	1000                	addi	s0,sp,32
    2f6c:	87aa                	mv	a5,a0
    2f6e:	86ae                	mv	a3,a1
    2f70:	8732                	mv	a4,a2
    2f72:	fef42623          	sw	a5,-20(s0)
    2f76:	87b6                	mv	a5,a3
    2f78:	fef42423          	sw	a5,-24(s0)
    2f7c:	87ba                	mv	a5,a4
    2f7e:	fef42223          	sw	a5,-28(s0)
    2f82:	fec42783          	lw	a5,-20(s0)
    2f86:	873e                	mv	a4,a5
    2f88:	fe842783          	lw	a5,-24(s0)
    2f8c:	2701                	sext.w	a4,a4
    2f8e:	2781                	sext.w	a5,a5
    2f90:	02e7e263          	bltu	a5,a4,2fb4 <sbi_pmu_add_hw_event_counter_map+0x50>
    2f94:	fec42783          	lw	a5,-20(s0)
    2f98:	0007871b          	sext.w	a4,a5
    2f9c:	000207b7          	lui	a5,0x20
    2fa0:	00f70a63          	beq	a4,a5,2fb4 <sbi_pmu_add_hw_event_counter_map+0x50>
    2fa4:	fe842783          	lw	a5,-24(s0)
    2fa8:	0007871b          	sext.w	a4,a5
    2fac:	000207b7          	lui	a5,0x20
    2fb0:	00f71463          	bne	a4,a5,2fb8 <sbi_pmu_add_hw_event_counter_map+0x54>
    2fb4:	57f5                	li	a5,-3
    2fb6:	a829                	j	2fd0 <sbi_pmu_add_hw_event_counter_map+0x6c>
    2fb8:	fe442603          	lw	a2,-28(s0)
    2fbc:	fe842583          	lw	a1,-24(s0)
    2fc0:	fec42783          	lw	a5,-20(s0)
    2fc4:	4701                	li	a4,0
    2fc6:	4681                	li	a3,0
    2fc8:	853e                	mv	a0,a5
    2fca:	df3ff0ef          	jal	2dbc <pmu_add_hw_event_map>
    2fce:	87aa                	mv	a5,a0
    2fd0:	853e                	mv	a0,a5
    2fd2:	60e2                	ld	ra,24(sp)
    2fd4:	6442                	ld	s0,16(sp)
    2fd6:	6105                	addi	sp,sp,32
    2fd8:	8082                	ret

0000000000002fda <sbi_pmu_add_raw_event_counter_map>:
    2fda:	7179                	addi	sp,sp,-48
    2fdc:	f406                	sd	ra,40(sp)
    2fde:	f022                	sd	s0,32(sp)
    2fe0:	1800                	addi	s0,sp,48
    2fe2:	fea43423          	sd	a0,-24(s0)
    2fe6:	feb43023          	sd	a1,-32(s0)
    2fea:	87b2                	mv	a5,a2
    2fec:	fcf42e23          	sw	a5,-36(s0)
    2ff0:	fdc42783          	lw	a5,-36(s0)
    2ff4:	fe043703          	ld	a4,-32(s0)
    2ff8:	fe843683          	ld	a3,-24(s0)
    2ffc:	863e                	mv	a2,a5
    2ffe:	000205b7          	lui	a1,0x20
    3002:	00020537          	lui	a0,0x20
    3006:	db7ff0ef          	jal	2dbc <pmu_add_hw_event_map>
    300a:	87aa                	mv	a5,a0
    300c:	853e                	mv	a0,a5
    300e:	70a2                	ld	ra,40(sp)
    3010:	7402                	ld	s0,32(sp)
    3012:	6145                	addi	sp,sp,48
    3014:	8082                	ret

0000000000003016 <sbi_pmu_ovf_irq>:
    3016:	1101                	addi	sp,sp,-32
    3018:	ec06                	sd	ra,24(sp)
    301a:	e822                	sd	s0,16(sp)
    301c:	1000                	addi	s0,sp,32
    301e:	6789                	lui	a5,0x2
    3020:	fef43423          	sd	a5,-24(s0)
    3024:	fe843783          	ld	a5,-24(s0)
    3028:	3047b073          	csrc	mie,a5
    302c:	6541                	lui	a0,0x10
    302e:	5ae040ef          	jal	75dc <sbi_sse_inject_event>
    3032:	0001                	nop
    3034:	60e2                	ld	ra,24(sp)
    3036:	6442                	ld	s0,16(sp)
    3038:	6105                	addi	sp,sp,32
    303a:	8082                	ret

000000000000303c <pmu_ctr_enable_irq_hw>:
    303c:	715d                	addi	sp,sp,-80
    303e:	e486                	sd	ra,72(sp)
    3040:	e0a2                	sd	s0,64(sp)
    3042:	fc26                	sd	s1,56(sp)
    3044:	0880                	addi	s0,sp,80
    3046:	87aa                	mv	a5,a0
    3048:	faf42e23          	sw	a5,-68(s0)
    304c:	fbc42783          	lw	a5,-68(s0)
    3050:	0007871b          	sext.w	a4,a5
    3054:	4789                	li	a5,2
    3056:	00e7d963          	bge	a5,a4,3068 <pmu_ctr_enable_irq_hw+0x2c>
    305a:	fbc42783          	lw	a5,-68(s0)
    305e:	0007871b          	sext.w	a4,a5
    3062:	47fd                	li	a5,31
    3064:	00e7d463          	bge	a5,a4,306c <pmu_ctr_enable_irq_hw+0x30>
    3068:	57fd                	li	a5,-1
    306a:	a8b9                	j	30c8 <pmu_ctr_enable_irq_hw+0x8c>
    306c:	fbc42783          	lw	a5,-68(s0)
    3070:	3207879b          	addiw	a5,a5,800 # 2320 <sbi_platform_irqchip_exit+0x4>
    3074:	2781                	sext.w	a5,a5
    3076:	fcf43c23          	sd	a5,-40(s0)
    307a:	57fd                	li	a5,-1
    307c:	8385                	srli	a5,a5,0x1
    307e:	fcf43823          	sd	a5,-48(s0)
    3082:	fd843783          	ld	a5,-40(s0)
    3086:	2781                	sext.w	a5,a5
    3088:	853e                	mv	a0,a5
    308a:	1850a0ef          	jal	da0e <csr_read_num>
    308e:	fca43423          	sd	a0,-56(s0)
    3092:	344027f3          	csrr	a5,mip
    3096:	84be                	mv	s1,a5
    3098:	87a6                	mv	a5,s1
    309a:	fcf43023          	sd	a5,-64(s0)
    309e:	fc043703          	ld	a4,-64(s0)
    30a2:	6789                	lui	a5,0x2
    30a4:	8ff9                	and	a5,a5,a4
    30a6:	e385                	bnez	a5,30c6 <pmu_ctr_enable_irq_hw+0x8a>
    30a8:	fc843703          	ld	a4,-56(s0)
    30ac:	fd043783          	ld	a5,-48(s0)
    30b0:	8ff9                	and	a5,a5,a4
    30b2:	fcf43423          	sd	a5,-56(s0)
    30b6:	fd843783          	ld	a5,-40(s0)
    30ba:	2781                	sext.w	a5,a5
    30bc:	fc843583          	ld	a1,-56(s0)
    30c0:	853e                	mv	a0,a5
    30c2:	2200b0ef          	jal	e2e2 <csr_write_num>
    30c6:	4781                	li	a5,0
    30c8:	853e                	mv	a0,a5
    30ca:	60a6                	ld	ra,72(sp)
    30cc:	6406                	ld	s0,64(sp)
    30ce:	74e2                	ld	s1,56(sp)
    30d0:	6161                	addi	sp,sp,80
    30d2:	8082                	ret

00000000000030d4 <pmu_ctr_write_hw>:
    30d4:	1101                	addi	sp,sp,-32
    30d6:	ec06                	sd	ra,24(sp)
    30d8:	e822                	sd	s0,16(sp)
    30da:	1000                	addi	s0,sp,32
    30dc:	87aa                	mv	a5,a0
    30de:	feb43023          	sd	a1,-32(s0)
    30e2:	fef42623          	sw	a5,-20(s0)
    30e6:	fec42783          	lw	a5,-20(s0)
    30ea:	873e                	mv	a4,a5
    30ec:	6785                	lui	a5,0x1
    30ee:	b007879b          	addiw	a5,a5,-1280 # b00 <sbi_boot_print_general+0x1ac>
    30f2:	9fb9                	addw	a5,a5,a4
    30f4:	2781                	sext.w	a5,a5
    30f6:	2781                	sext.w	a5,a5
    30f8:	fe043583          	ld	a1,-32(s0)
    30fc:	853e                	mv	a0,a5
    30fe:	1e40b0ef          	jal	e2e2 <csr_write_num>
    3102:	0001                	nop
    3104:	60e2                	ld	ra,24(sp)
    3106:	6442                	ld	s0,16(sp)
    3108:	6105                	addi	sp,sp,32
    310a:	8082                	ret

000000000000310c <pmu_ctr_start_hw>:
    310c:	715d                	addi	sp,sp,-80
    310e:	e486                	sd	ra,72(sp)
    3110:	e0a2                	sd	s0,64(sp)
    3112:	fc26                	sd	s1,56(sp)
    3114:	0880                	addi	s0,sp,80
    3116:	87aa                	mv	a5,a0
    3118:	fab43823          	sd	a1,-80(s0)
    311c:	8732                	mv	a4,a2
    311e:	faf42e23          	sw	a5,-68(s0)
    3122:	87ba                	mv	a5,a4
    3124:	faf42c23          	sw	a5,-72(s0)
    3128:	340027f3          	csrr	a5,mscratch
    312c:	84be                	mv	s1,a5
    312e:	87a6                	mv	a5,s1
    3130:	fcf43c23          	sd	a5,-40(s0)
    3134:	00080797          	auipc	a5,0x80
    3138:	11878793          	addi	a5,a5,280 # 8324c <num_hw_ctrs>
    313c:	4398                	lw	a4,0(a5)
    313e:	fbc42783          	lw	a5,-68(s0)
    3142:	2781                	sext.w	a5,a5
    3144:	00e7f963          	bgeu	a5,a4,3156 <pmu_ctr_start_hw+0x4a>
    3148:	fbc42783          	lw	a5,-68(s0)
    314c:	0007871b          	sext.w	a4,a5
    3150:	4785                	li	a5,1
    3152:	00f71463          	bne	a4,a5,315a <pmu_ctr_start_hw+0x4e>
    3156:	57f5                	li	a5,-3
    3158:	a8c1                	j	3228 <pmu_ctr_start_hw+0x11c>
    315a:	fd843503          	ld	a0,-40(s0)
    315e:	7d6120ef          	jal	15934 <sbi_hart_priv_version>
    3162:	87aa                	mv	a5,a0
    3164:	873e                	mv	a4,a5
    3166:	4785                	li	a5,1
    3168:	00e7cf63          	blt	a5,a4,3186 <pmu_ctr_start_hw+0x7a>
    316c:	fb842783          	lw	a5,-72(s0)
    3170:	2781                	sext.w	a5,a5
    3172:	cb81                	beqz	a5,3182 <pmu_ctr_start_hw+0x76>
    3174:	fbc42783          	lw	a5,-68(s0)
    3178:	fb043583          	ld	a1,-80(s0)
    317c:	853e                	mv	a0,a5
    317e:	f57ff0ef          	jal	30d4 <pmu_ctr_write_hw>
    3182:	4781                	li	a5,0
    3184:	a055                	j	3228 <pmu_ctr_start_hw+0x11c>
    3186:	320027f3          	csrr	a5,mcountinhibit
    318a:	80be                	mv	ra,a5
    318c:	8786                	mv	a5,ra
    318e:	fcf43423          	sd	a5,-56(s0)
    3192:	fbc42783          	lw	a5,-68(s0)
    3196:	fc840713          	addi	a4,s0,-56
    319a:	85ba                	mv	a1,a4
    319c:	853e                	mv	a0,a5
    319e:	ec6ff0ef          	jal	2864 <__test_bit>
    31a2:	87aa                	mv	a5,a0
    31a4:	e399                	bnez	a5,31aa <pmu_ctr_start_hw+0x9e>
    31a6:	57e5                	li	a5,-7
    31a8:	a041                	j	3228 <pmu_ctr_start_hw+0x11c>
    31aa:	fbc42783          	lw	a5,-68(s0)
    31ae:	fc840713          	addi	a4,s0,-56
    31b2:	85ba                	mv	a1,a4
    31b4:	853e                	mv	a0,a5
    31b6:	e4aff0ef          	jal	2800 <__clear_bit>
    31ba:	458d                	li	a1,3
    31bc:	fd843503          	ld	a0,-40(s0)
    31c0:	0ed120ef          	jal	15aac <sbi_hart_has_extension>
    31c4:	87aa                	mv	a5,a0
    31c6:	c791                	beqz	a5,31d2 <pmu_ctr_start_hw+0xc6>
    31c8:	fbc42783          	lw	a5,-68(s0)
    31cc:	853e                	mv	a0,a5
    31ce:	e6fff0ef          	jal	303c <pmu_ctr_enable_irq_hw>
    31d2:	fb842783          	lw	a5,-72(s0)
    31d6:	2781                	sext.w	a5,a5
    31d8:	cb81                	beqz	a5,31e8 <pmu_ctr_start_hw+0xdc>
    31da:	fbc42783          	lw	a5,-68(s0)
    31de:	fb043583          	ld	a1,-80(s0)
    31e2:	853e                	mv	a0,a5
    31e4:	ef1ff0ef          	jal	30d4 <pmu_ctr_write_hw>
    31e8:	00080797          	auipc	a5,0x80
    31ec:	05078793          	addi	a5,a5,80 # 83238 <pmu_dev>
    31f0:	639c                	ld	a5,0(a5)
    31f2:	c395                	beqz	a5,3216 <pmu_ctr_start_hw+0x10a>
    31f4:	00080797          	auipc	a5,0x80
    31f8:	04478793          	addi	a5,a5,68 # 83238 <pmu_dev>
    31fc:	639c                	ld	a5,0(a5)
    31fe:	6fbc                	ld	a5,88(a5)
    3200:	cb99                	beqz	a5,3216 <pmu_ctr_start_hw+0x10a>
    3202:	00080797          	auipc	a5,0x80
    3206:	03678793          	addi	a5,a5,54 # 83238 <pmu_dev>
    320a:	639c                	ld	a5,0(a5)
    320c:	6fbc                	ld	a5,88(a5)
    320e:	fbc42703          	lw	a4,-68(s0)
    3212:	853a                	mv	a0,a4
    3214:	9782                	jalr	a5
    3216:	fc843783          	ld	a5,-56(s0)
    321a:	fcf43823          	sd	a5,-48(s0)
    321e:	fd043783          	ld	a5,-48(s0)
    3222:	32079073          	csrw	mcountinhibit,a5
    3226:	4781                	li	a5,0
    3228:	853e                	mv	a0,a5
    322a:	60a6                	ld	ra,72(sp)
    322c:	6406                	ld	s0,64(sp)
    322e:	74e2                	ld	s1,56(sp)
    3230:	6161                	addi	sp,sp,80
    3232:	8082                	ret

0000000000003234 <sbi_pmu_irq_bit>:
    3234:	1101                	addi	sp,sp,-32
    3236:	ec06                	sd	ra,24(sp)
    3238:	e822                	sd	s0,16(sp)
    323a:	1000                	addi	s0,sp,32
    323c:	340027f3          	csrr	a5,mscratch
    3240:	80be                	mv	ra,a5
    3242:	8786                	mv	a5,ra
    3244:	fef43423          	sd	a5,-24(s0)
    3248:	458d                	li	a1,3
    324a:	fe843503          	ld	a0,-24(s0)
    324e:	05f120ef          	jal	15aac <sbi_hart_has_extension>
    3252:	87aa                	mv	a5,a0
    3254:	c399                	beqz	a5,325a <sbi_pmu_irq_bit+0x26>
    3256:	6789                	lui	a5,0x2
    3258:	a805                	j	3288 <sbi_pmu_irq_bit+0x54>
    325a:	00080797          	auipc	a5,0x80
    325e:	fde78793          	addi	a5,a5,-34 # 83238 <pmu_dev>
    3262:	639c                	ld	a5,0(a5)
    3264:	c38d                	beqz	a5,3286 <sbi_pmu_irq_bit+0x52>
    3266:	00080797          	auipc	a5,0x80
    326a:	fd278793          	addi	a5,a5,-46 # 83238 <pmu_dev>
    326e:	639c                	ld	a5,0(a5)
    3270:	77bc                	ld	a5,104(a5)
    3272:	cb91                	beqz	a5,3286 <sbi_pmu_irq_bit+0x52>
    3274:	00080797          	auipc	a5,0x80
    3278:	fc478793          	addi	a5,a5,-60 # 83238 <pmu_dev>
    327c:	639c                	ld	a5,0(a5)
    327e:	77bc                	ld	a5,104(a5)
    3280:	9782                	jalr	a5
    3282:	87aa                	mv	a5,a0
    3284:	a011                	j	3288 <sbi_pmu_irq_bit+0x54>
    3286:	4781                	li	a5,0
    3288:	853e                	mv	a0,a5
    328a:	60e2                	ld	ra,24(sp)
    328c:	6442                	ld	s0,16(sp)
    328e:	6105                	addi	sp,sp,32
    3290:	8082                	ret

0000000000003292 <pmu_ctr_start_fw>:
    3292:	7139                	addi	sp,sp,-64
    3294:	fc06                	sd	ra,56(sp)
    3296:	f822                	sd	s0,48(sp)
    3298:	0080                	addi	s0,sp,64
    329a:	fea43423          	sd	a0,-24(s0)
    329e:	fcd43c23          	sd	a3,-40(s0)
    32a2:	fce43823          	sd	a4,-48(s0)
    32a6:	873e                	mv	a4,a5
    32a8:	87ae                	mv	a5,a1
    32aa:	fef42223          	sw	a5,-28(s0)
    32ae:	87b2                	mv	a5,a2
    32b0:	fef42023          	sw	a5,-32(s0)
    32b4:	87ba                	mv	a5,a4
    32b6:	fcf42623          	sw	a5,-52(s0)
    32ba:	fe042783          	lw	a5,-32(s0)
    32be:	0007871b          	sext.w	a4,a5
    32c2:	47d5                	li	a5,21
    32c4:	00e7fa63          	bgeu	a5,a4,32d8 <pmu_ctr_start_fw+0x46>
    32c8:	fe042783          	lw	a5,-32(s0)
    32cc:	0007871b          	sext.w	a4,a5
    32d0:	67c1                	lui	a5,0x10
    32d2:	17f9                	addi	a5,a5,-2 # fffe <sbi_ecall_base_handler+0x64>
    32d4:	00e7f963          	bgeu	a5,a4,32e6 <pmu_ctr_start_fw+0x54>
    32d8:	fe042783          	lw	a5,-32(s0)
    32dc:	0007871b          	sext.w	a4,a5
    32e0:	67c1                	lui	a5,0x10
    32e2:	00f76463          	bltu	a4,a5,32ea <pmu_ctr_start_fw+0x58>
    32e6:	57f5                	li	a5,-3
    32e8:	a219                	j	33ee <pmu_ctr_start_fw+0x15c>
    32ea:	fe042783          	lw	a5,-32(s0)
    32ee:	0007871b          	sext.w	a4,a5
    32f2:	67c1                	lui	a5,0x10
    32f4:	17fd                	addi	a5,a5,-1 # ffff <sbi_ecall_base_handler+0x65>
    32f6:	08f71e63          	bne	a4,a5,3392 <pmu_ctr_start_fw+0x100>
    32fa:	00080797          	auipc	a5,0x80
    32fe:	f3e78793          	addi	a5,a5,-194 # 83238 <pmu_dev>
    3302:	639c                	ld	a5,0(a5)
    3304:	cf99                	beqz	a5,3322 <pmu_ctr_start_fw+0x90>
    3306:	00080797          	auipc	a5,0x80
    330a:	f3278793          	addi	a5,a5,-206 # 83238 <pmu_dev>
    330e:	639c                	ld	a5,0(a5)
    3310:	63bc                	ld	a5,64(a5)
    3312:	cb81                	beqz	a5,3322 <pmu_ctr_start_fw+0x90>
    3314:	00080797          	auipc	a5,0x80
    3318:	f2478793          	addi	a5,a5,-220 # 83238 <pmu_dev>
    331c:	639c                	ld	a5,0(a5)
    331e:	67bc                	ld	a5,72(a5)
    3320:	e399                	bnez	a5,3326 <pmu_ctr_start_fw+0x94>
    3322:	57f5                	li	a5,-3
    3324:	a0e9                	j	33ee <pmu_ctr_start_fw+0x15c>
    3326:	fcc42783          	lw	a5,-52(s0)
    332a:	2781                	sext.w	a5,a5
    332c:	cb8d                	beqz	a5,335e <pmu_ctr_start_fw+0xcc>
    332e:	00080797          	auipc	a5,0x80
    3332:	f0a78793          	addi	a5,a5,-246 # 83238 <pmu_dev>
    3336:	639c                	ld	a5,0(a5)
    3338:	63bc                	ld	a5,64(a5)
    333a:	fe843703          	ld	a4,-24(s0)
    333e:	4314                	lw	a3,0(a4)
    3340:	00080717          	auipc	a4,0x80
    3344:	f0c70713          	addi	a4,a4,-244 # 8324c <num_hw_ctrs>
    3348:	4318                	lw	a4,0(a4)
    334a:	fe442603          	lw	a2,-28(s0)
    334e:	40e6073b          	subw	a4,a2,a4
    3352:	2701                	sext.w	a4,a4
    3354:	fd043603          	ld	a2,-48(s0)
    3358:	85ba                	mv	a1,a4
    335a:	8536                	mv	a0,a3
    335c:	9782                	jalr	a5
    335e:	00080797          	auipc	a5,0x80
    3362:	eda78793          	addi	a5,a5,-294 # 83238 <pmu_dev>
    3366:	639c                	ld	a5,0(a5)
    3368:	67bc                	ld	a5,72(a5)
    336a:	fe843703          	ld	a4,-24(s0)
    336e:	4314                	lw	a3,0(a4)
    3370:	00080717          	auipc	a4,0x80
    3374:	edc70713          	addi	a4,a4,-292 # 8324c <num_hw_ctrs>
    3378:	4318                	lw	a4,0(a4)
    337a:	fe442603          	lw	a2,-28(s0)
    337e:	40e6073b          	subw	a4,a2,a4
    3382:	2701                	sext.w	a4,a4
    3384:	fd843603          	ld	a2,-40(s0)
    3388:	85ba                	mv	a1,a4
    338a:	8536                	mv	a0,a3
    338c:	9782                	jalr	a5
    338e:	87aa                	mv	a5,a0
    3390:	a8b9                	j	33ee <pmu_ctr_start_fw+0x15c>
    3392:	fcc42783          	lw	a5,-52(s0)
    3396:	2781                	sext.w	a5,a5
    3398:	c78d                	beqz	a5,33c2 <pmu_ctr_start_fw+0x130>
    339a:	00080797          	auipc	a5,0x80
    339e:	eb278793          	addi	a5,a5,-334 # 8324c <num_hw_ctrs>
    33a2:	439c                	lw	a5,0(a5)
    33a4:	fe442703          	lw	a4,-28(s0)
    33a8:	40f707bb          	subw	a5,a4,a5
    33ac:	2781                	sext.w	a5,a5
    33ae:	fe843703          	ld	a4,-24(s0)
    33b2:	1782                	slli	a5,a5,0x20
    33b4:	9381                	srli	a5,a5,0x20
    33b6:	07e9                	addi	a5,a5,26
    33b8:	078e                	slli	a5,a5,0x3
    33ba:	97ba                	add	a5,a5,a4
    33bc:	fd043703          	ld	a4,-48(s0)
    33c0:	e798                	sd	a4,8(a5)
    33c2:	fe843783          	ld	a5,-24(s0)
    33c6:	67f8                	ld	a4,200(a5)
    33c8:	00080797          	auipc	a5,0x80
    33cc:	e8478793          	addi	a5,a5,-380 # 8324c <num_hw_ctrs>
    33d0:	439c                	lw	a5,0(a5)
    33d2:	fe442683          	lw	a3,-28(s0)
    33d6:	40f687bb          	subw	a5,a3,a5
    33da:	2781                	sext.w	a5,a5
    33dc:	86be                	mv	a3,a5
    33de:	4785                	li	a5,1
    33e0:	00d797b3          	sll	a5,a5,a3
    33e4:	8f5d                	or	a4,a4,a5
    33e6:	fe843783          	ld	a5,-24(s0)
    33ea:	e7f8                	sd	a4,200(a5)
    33ec:	4781                	li	a5,0
    33ee:	853e                	mv	a0,a5
    33f0:	70e2                	ld	ra,56(sp)
    33f2:	7442                	ld	s0,48(sp)
    33f4:	6121                	addi	sp,sp,64
    33f6:	8082                	ret

00000000000033f8 <sbi_pmu_ctr_start>:
    33f8:	7159                	addi	sp,sp,-112
    33fa:	f486                	sd	ra,104(sp)
    33fc:	f0a2                	sd	s0,96(sp)
    33fe:	eca6                	sd	s1,88(sp)
    3400:	1880                	addi	s0,sp,112
    3402:	faa43423          	sd	a0,-88(s0)
    3406:	fab43023          	sd	a1,-96(s0)
    340a:	f8c43c23          	sd	a2,-104(s0)
    340e:	f8d43823          	sd	a3,-112(s0)
    3412:	00080797          	auipc	a5,0x80
    3416:	e1e78793          	addi	a5,a5,-482 # 83230 <phs_ptr_offset>
    341a:	639c                	ld	a5,0(a5)
    341c:	cf89                	beqz	a5,3436 <sbi_pmu_ctr_start+0x3e>
    341e:	340027f3          	csrr	a5,mscratch
    3422:	84be                	mv	s1,a5
    3424:	8726                	mv	a4,s1
    3426:	00080797          	auipc	a5,0x80
    342a:	e0a78793          	addi	a5,a5,-502 # 83230 <phs_ptr_offset>
    342e:	639c                	ld	a5,0(a5)
    3430:	97ba                	add	a5,a5,a4
    3432:	639c                	ld	a5,0(a5)
    3434:	a011                	j	3438 <sbi_pmu_ctr_start+0x40>
    3436:	4781                	li	a5,0
    3438:	fcf43423          	sd	a5,-56(s0)
    343c:	fc843783          	ld	a5,-56(s0)
    3440:	0017b793          	seqz	a5,a5
    3444:	0ff7f793          	zext.b	a5,a5
    3448:	c399                	beqz	a5,344e <sbi_pmu_ctr_start+0x56>
    344a:	57f5                	li	a5,-3
    344c:	aab1                	j	35a8 <sbi_pmu_ctr_start+0x1b0>
    344e:	57f5                	li	a5,-3
    3450:	fcf42e23          	sw	a5,-36(s0)
    3454:	fc042c23          	sw	zero,-40(s0)
    3458:	fa043783          	ld	a5,-96(s0)
    345c:	853e                	mv	a0,a5
    345e:	a72ff0ef          	jal	26d0 <sbi_fls>
    3462:	872a                	mv	a4,a0
    3464:	fa843783          	ld	a5,-88(s0)
    3468:	973e                	add	a4,a4,a5
    346a:	00080797          	auipc	a5,0x80
    346e:	de678793          	addi	a5,a5,-538 # 83250 <total_ctrs>
    3472:	439c                	lw	a5,0(a5)
    3474:	1782                	slli	a5,a5,0x20
    3476:	9381                	srli	a5,a5,0x20
    3478:	00f76563          	bltu	a4,a5,3482 <sbi_pmu_ctr_start+0x8a>
    347c:	fdc42783          	lw	a5,-36(s0)
    3480:	a225                	j	35a8 <sbi_pmu_ctr_start+0x1b0>
    3482:	f9843783          	ld	a5,-104(s0)
    3486:	8b89                	andi	a5,a5,2
    3488:	c399                	beqz	a5,348e <sbi_pmu_ctr_start+0x96>
    348a:	57dd                	li	a5,-9
    348c:	aa31                	j	35a8 <sbi_pmu_ctr_start+0x1b0>
    348e:	f9843783          	ld	a5,-104(s0)
    3492:	8b85                	andi	a5,a5,1
    3494:	c781                	beqz	a5,349c <sbi_pmu_ctr_start+0xa4>
    3496:	4785                	li	a5,1
    3498:	fcf42c23          	sw	a5,-40(s0)
    349c:	fa040793          	addi	a5,s0,-96
    34a0:	04000593          	li	a1,64
    34a4:	853e                	mv	a0,a5
    34a6:	72d0c0ef          	jal	103d2 <find_first_bit>
    34aa:	87aa                	mv	a5,a0
    34ac:	fcf42a23          	sw	a5,-44(s0)
    34b0:	a0d5                	j	3594 <sbi_pmu_ctr_start+0x19c>
    34b2:	fa843783          	ld	a5,-88(s0)
    34b6:	0007871b          	sext.w	a4,a5
    34ba:	fd442783          	lw	a5,-44(s0)
    34be:	9fb9                	addw	a5,a5,a4
    34c0:	2781                	sext.w	a5,a5
    34c2:	fcf42223          	sw	a5,-60(s0)
    34c6:	fc442783          	lw	a5,-60(s0)
    34ca:	fb440713          	addi	a4,s0,-76
    34ce:	863a                	mv	a2,a4
    34d0:	85be                	mv	a1,a5
    34d2:	fc843503          	ld	a0,-56(s0)
    34d6:	f10ff0ef          	jal	2be6 <pmu_ctr_validate>
    34da:	87aa                	mv	a5,a0
    34dc:	fcf42023          	sw	a5,-64(s0)
    34e0:	fc042783          	lw	a5,-64(s0)
    34e4:	2781                	sext.w	a5,a5
    34e6:	0807c663          	bltz	a5,3572 <sbi_pmu_ctr_start+0x17a>
    34ea:	fc042783          	lw	a5,-64(s0)
    34ee:	0007871b          	sext.w	a4,a5
    34f2:	47bd                	li	a5,15
    34f4:	06f71163          	bne	a4,a5,3556 <sbi_pmu_ctr_start+0x15e>
    34f8:	fb442783          	lw	a5,-76(s0)
    34fc:	873e                	mv	a4,a5
    34fe:	67c1                	lui	a5,0x10
    3500:	17fd                	addi	a5,a5,-1 # ffff <sbi_ecall_base_handler+0x65>
    3502:	02f71563          	bne	a4,a5,352c <sbi_pmu_ctr_start+0x134>
    3506:	fc442703          	lw	a4,-60(s0)
    350a:	00080797          	auipc	a5,0x80
    350e:	d4278793          	addi	a5,a5,-702 # 8324c <num_hw_ctrs>
    3512:	439c                	lw	a5,0(a5)
    3514:	40f707bb          	subw	a5,a4,a5
    3518:	2781                	sext.w	a5,a5
    351a:	fc843703          	ld	a4,-56(s0)
    351e:	1782                	slli	a5,a5,0x20
    3520:	9381                	srli	a5,a5,0x20
    3522:	07e9                	addi	a5,a5,26
    3524:	078e                	slli	a5,a5,0x3
    3526:	97ba                	add	a5,a5,a4
    3528:	679c                	ld	a5,8(a5)
    352a:	a011                	j	352e <sbi_pmu_ctr_start+0x136>
    352c:	4781                	li	a5,0
    352e:	faf43c23          	sd	a5,-72(s0)
    3532:	fc442583          	lw	a1,-60(s0)
    3536:	fb442603          	lw	a2,-76(s0)
    353a:	fd842783          	lw	a5,-40(s0)
    353e:	f9043703          	ld	a4,-112(s0)
    3542:	fb843683          	ld	a3,-72(s0)
    3546:	fc843503          	ld	a0,-56(s0)
    354a:	d49ff0ef          	jal	3292 <pmu_ctr_start_fw>
    354e:	87aa                	mv	a5,a0
    3550:	fcf42e23          	sw	a5,-36(s0)
    3554:	a005                	j	3574 <sbi_pmu_ctr_start+0x17c>
    3556:	fc442783          	lw	a5,-60(s0)
    355a:	fd842703          	lw	a4,-40(s0)
    355e:	863a                	mv	a2,a4
    3560:	f9043583          	ld	a1,-112(s0)
    3564:	853e                	mv	a0,a5
    3566:	ba7ff0ef          	jal	310c <pmu_ctr_start_hw>
    356a:	87aa                	mv	a5,a0
    356c:	fcf42e23          	sw	a5,-36(s0)
    3570:	a011                	j	3574 <sbi_pmu_ctr_start+0x17c>
    3572:	0001                	nop
    3574:	fd442783          	lw	a5,-44(s0)
    3578:	2785                	addiw	a5,a5,1
    357a:	2781                	sext.w	a5,a5
    357c:	873e                	mv	a4,a5
    357e:	fa040793          	addi	a5,s0,-96
    3582:	863a                	mv	a2,a4
    3584:	04000593          	li	a1,64
    3588:	853e                	mv	a0,a5
    358a:	07a0d0ef          	jal	10604 <find_next_bit>
    358e:	87aa                	mv	a5,a0
    3590:	fcf42a23          	sw	a5,-44(s0)
    3594:	fd442783          	lw	a5,-44(s0)
    3598:	0007871b          	sext.w	a4,a5
    359c:	03f00793          	li	a5,63
    35a0:	f0e7d9e3          	bge	a5,a4,34b2 <sbi_pmu_ctr_start+0xba>
    35a4:	fdc42783          	lw	a5,-36(s0)
    35a8:	853e                	mv	a0,a5
    35aa:	70a6                	ld	ra,104(sp)
    35ac:	7406                	ld	s0,96(sp)
    35ae:	64e6                	ld	s1,88(sp)
    35b0:	6165                	addi	sp,sp,112
    35b2:	8082                	ret

00000000000035b4 <pmu_ctr_stop_hw>:
    35b4:	715d                	addi	sp,sp,-80
    35b6:	e486                	sd	ra,72(sp)
    35b8:	e0a2                	sd	s0,64(sp)
    35ba:	fc26                	sd	s1,56(sp)
    35bc:	0880                	addi	s0,sp,80
    35be:	87aa                	mv	a5,a0
    35c0:	faf42e23          	sw	a5,-68(s0)
    35c4:	340027f3          	csrr	a5,mscratch
    35c8:	80be                	mv	ra,a5
    35ca:	8786                	mv	a5,ra
    35cc:	fcf43c23          	sd	a5,-40(s0)
    35d0:	fd843503          	ld	a0,-40(s0)
    35d4:	360120ef          	jal	15934 <sbi_hart_priv_version>
    35d8:	87aa                	mv	a5,a0
    35da:	873e                	mv	a4,a5
    35dc:	4785                	li	a5,1
    35de:	00e7c463          	blt	a5,a4,35e6 <pmu_ctr_stop_hw+0x32>
    35e2:	4781                	li	a5,0
    35e4:	a871                	j	3680 <pmu_ctr_stop_hw+0xcc>
    35e6:	320027f3          	csrr	a5,mcountinhibit
    35ea:	84be                	mv	s1,a5
    35ec:	87a6                	mv	a5,s1
    35ee:	fcf43423          	sd	a5,-56(s0)
    35f2:	00080797          	auipc	a5,0x80
    35f6:	c5a78793          	addi	a5,a5,-934 # 8324c <num_hw_ctrs>
    35fa:	4398                	lw	a4,0(a5)
    35fc:	fbc42783          	lw	a5,-68(s0)
    3600:	2781                	sext.w	a5,a5
    3602:	00e7f963          	bgeu	a5,a4,3614 <pmu_ctr_stop_hw+0x60>
    3606:	fbc42783          	lw	a5,-68(s0)
    360a:	0007871b          	sext.w	a4,a5
    360e:	4785                	li	a5,1
    3610:	00f71463          	bne	a4,a5,3618 <pmu_ctr_stop_hw+0x64>
    3614:	57f5                	li	a5,-3
    3616:	a0ad                	j	3680 <pmu_ctr_stop_hw+0xcc>
    3618:	fbc42783          	lw	a5,-68(s0)
    361c:	fc840713          	addi	a4,s0,-56
    3620:	85ba                	mv	a1,a4
    3622:	853e                	mv	a0,a5
    3624:	a40ff0ef          	jal	2864 <__test_bit>
    3628:	87aa                	mv	a5,a0
    362a:	ebb1                	bnez	a5,367e <pmu_ctr_stop_hw+0xca>
    362c:	fbc42783          	lw	a5,-68(s0)
    3630:	fc840713          	addi	a4,s0,-56
    3634:	85ba                	mv	a1,a4
    3636:	853e                	mv	a0,a5
    3638:	968ff0ef          	jal	27a0 <__set_bit>
    363c:	fc843783          	ld	a5,-56(s0)
    3640:	fcf43823          	sd	a5,-48(s0)
    3644:	fd043783          	ld	a5,-48(s0)
    3648:	32079073          	csrw	mcountinhibit,a5
    364c:	00080797          	auipc	a5,0x80
    3650:	bec78793          	addi	a5,a5,-1044 # 83238 <pmu_dev>
    3654:	639c                	ld	a5,0(a5)
    3656:	c395                	beqz	a5,367a <pmu_ctr_stop_hw+0xc6>
    3658:	00080797          	auipc	a5,0x80
    365c:	be078793          	addi	a5,a5,-1056 # 83238 <pmu_dev>
    3660:	639c                	ld	a5,0(a5)
    3662:	73bc                	ld	a5,96(a5)
    3664:	cb99                	beqz	a5,367a <pmu_ctr_stop_hw+0xc6>
    3666:	00080797          	auipc	a5,0x80
    366a:	bd278793          	addi	a5,a5,-1070 # 83238 <pmu_dev>
    366e:	639c                	ld	a5,0(a5)
    3670:	73bc                	ld	a5,96(a5)
    3672:	fbc42703          	lw	a4,-68(s0)
    3676:	853a                	mv	a0,a4
    3678:	9782                	jalr	a5
    367a:	4781                	li	a5,0
    367c:	a011                	j	3680 <pmu_ctr_stop_hw+0xcc>
    367e:	57e1                	li	a5,-8
    3680:	853e                	mv	a0,a5
    3682:	60a6                	ld	ra,72(sp)
    3684:	6406                	ld	s0,64(sp)
    3686:	74e2                	ld	s1,56(sp)
    3688:	6161                	addi	sp,sp,80
    368a:	8082                	ret

000000000000368c <pmu_ctr_stop_fw>:
    368c:	7179                	addi	sp,sp,-48
    368e:	f406                	sd	ra,40(sp)
    3690:	f022                	sd	s0,32(sp)
    3692:	1800                	addi	s0,sp,48
    3694:	fca43c23          	sd	a0,-40(s0)
    3698:	87ae                	mv	a5,a1
    369a:	8732                	mv	a4,a2
    369c:	fcf42a23          	sw	a5,-44(s0)
    36a0:	87ba                	mv	a5,a4
    36a2:	fcf42823          	sw	a5,-48(s0)
    36a6:	fd042783          	lw	a5,-48(s0)
    36aa:	0007871b          	sext.w	a4,a5
    36ae:	47d5                	li	a5,21
    36b0:	00e7fa63          	bgeu	a5,a4,36c4 <pmu_ctr_stop_fw+0x38>
    36b4:	fd042783          	lw	a5,-48(s0)
    36b8:	0007871b          	sext.w	a4,a5
    36bc:	67c1                	lui	a5,0x10
    36be:	17f9                	addi	a5,a5,-2 # fffe <sbi_ecall_base_handler+0x64>
    36c0:	00e7f963          	bgeu	a5,a4,36d2 <pmu_ctr_stop_fw+0x46>
    36c4:	fd042783          	lw	a5,-48(s0)
    36c8:	0007871b          	sext.w	a4,a5
    36cc:	67c1                	lui	a5,0x10
    36ce:	00f76463          	bltu	a4,a5,36d6 <pmu_ctr_stop_fw+0x4a>
    36d2:	57f5                	li	a5,-3
    36d4:	a871                	j	3770 <pmu_ctr_stop_fw+0xe4>
    36d6:	fd042783          	lw	a5,-48(s0)
    36da:	0007871b          	sext.w	a4,a5
    36de:	67c1                	lui	a5,0x10
    36e0:	17fd                	addi	a5,a5,-1 # ffff <sbi_ecall_base_handler+0x65>
    36e2:	04f71f63          	bne	a4,a5,3740 <pmu_ctr_stop_fw+0xb4>
    36e6:	00080797          	auipc	a5,0x80
    36ea:	b5278793          	addi	a5,a5,-1198 # 83238 <pmu_dev>
    36ee:	639c                	ld	a5,0(a5)
    36f0:	cba1                	beqz	a5,3740 <pmu_ctr_stop_fw+0xb4>
    36f2:	00080797          	auipc	a5,0x80
    36f6:	b4678793          	addi	a5,a5,-1210 # 83238 <pmu_dev>
    36fa:	639c                	ld	a5,0(a5)
    36fc:	6bbc                	ld	a5,80(a5)
    36fe:	c3a9                	beqz	a5,3740 <pmu_ctr_stop_fw+0xb4>
    3700:	00080797          	auipc	a5,0x80
    3704:	b3878793          	addi	a5,a5,-1224 # 83238 <pmu_dev>
    3708:	639c                	ld	a5,0(a5)
    370a:	6bbc                	ld	a5,80(a5)
    370c:	fd843703          	ld	a4,-40(s0)
    3710:	4314                	lw	a3,0(a4)
    3712:	00080717          	auipc	a4,0x80
    3716:	b3a70713          	addi	a4,a4,-1222 # 8324c <num_hw_ctrs>
    371a:	4318                	lw	a4,0(a4)
    371c:	fd442603          	lw	a2,-44(s0)
    3720:	40e6073b          	subw	a4,a2,a4
    3724:	2701                	sext.w	a4,a4
    3726:	85ba                	mv	a1,a4
    3728:	8536                	mv	a0,a3
    372a:	9782                	jalr	a5
    372c:	87aa                	mv	a5,a0
    372e:	fef42623          	sw	a5,-20(s0)
    3732:	fec42783          	lw	a5,-20(s0)
    3736:	2781                	sext.w	a5,a5
    3738:	c781                	beqz	a5,3740 <pmu_ctr_stop_fw+0xb4>
    373a:	fec42783          	lw	a5,-20(s0)
    373e:	a80d                	j	3770 <pmu_ctr_stop_fw+0xe4>
    3740:	fd843783          	ld	a5,-40(s0)
    3744:	67f8                	ld	a4,200(a5)
    3746:	00080797          	auipc	a5,0x80
    374a:	b0678793          	addi	a5,a5,-1274 # 8324c <num_hw_ctrs>
    374e:	439c                	lw	a5,0(a5)
    3750:	fd442683          	lw	a3,-44(s0)
    3754:	40f687bb          	subw	a5,a3,a5
    3758:	2781                	sext.w	a5,a5
    375a:	86be                	mv	a3,a5
    375c:	4785                	li	a5,1
    375e:	00d797b3          	sll	a5,a5,a3
    3762:	fff7c793          	not	a5,a5
    3766:	8f7d                	and	a4,a4,a5
    3768:	fd843783          	ld	a5,-40(s0)
    376c:	e7f8                	sd	a4,200(a5)
    376e:	4781                	li	a5,0
    3770:	853e                	mv	a0,a5
    3772:	70a2                	ld	ra,40(sp)
    3774:	7402                	ld	s0,32(sp)
    3776:	6145                	addi	sp,sp,48
    3778:	8082                	ret

000000000000377a <pmu_reset_hw_mhpmevent>:
    377a:	1101                	addi	sp,sp,-32
    377c:	ec06                	sd	ra,24(sp)
    377e:	e822                	sd	s0,16(sp)
    3780:	1000                	addi	s0,sp,32
    3782:	87aa                	mv	a5,a0
    3784:	fef42623          	sw	a5,-20(s0)
    3788:	fec42783          	lw	a5,-20(s0)
    378c:	0007871b          	sext.w	a4,a5
    3790:	4789                	li	a5,2
    3792:	00e7d963          	bge	a5,a4,37a4 <pmu_reset_hw_mhpmevent+0x2a>
    3796:	fec42783          	lw	a5,-20(s0)
    379a:	0007871b          	sext.w	a4,a5
    379e:	47fd                	li	a5,31
    37a0:	00e7d463          	bge	a5,a4,37a8 <pmu_reset_hw_mhpmevent+0x2e>
    37a4:	57fd                	li	a5,-1
    37a6:	a819                	j	37bc <pmu_reset_hw_mhpmevent+0x42>
    37a8:	fec42783          	lw	a5,-20(s0)
    37ac:	3207879b          	addiw	a5,a5,800
    37b0:	2781                	sext.w	a5,a5
    37b2:	4581                	li	a1,0
    37b4:	853e                	mv	a0,a5
    37b6:	32d0a0ef          	jal	e2e2 <csr_write_num>
    37ba:	4781                	li	a5,0
    37bc:	853e                	mv	a0,a5
    37be:	60e2                	ld	ra,24(sp)
    37c0:	6442                	ld	s0,16(sp)
    37c2:	6105                	addi	sp,sp,32
    37c4:	8082                	ret

00000000000037c6 <sbi_pmu_ctr_stop>:
    37c6:	7159                	addi	sp,sp,-112
    37c8:	f486                	sd	ra,104(sp)
    37ca:	f0a2                	sd	s0,96(sp)
    37cc:	eca6                	sd	s1,88(sp)
    37ce:	1880                	addi	s0,sp,112
    37d0:	faa43423          	sd	a0,-88(s0)
    37d4:	fab43023          	sd	a1,-96(s0)
    37d8:	f8c43c23          	sd	a2,-104(s0)
    37dc:	00080797          	auipc	a5,0x80
    37e0:	a5478793          	addi	a5,a5,-1452 # 83230 <phs_ptr_offset>
    37e4:	639c                	ld	a5,0(a5)
    37e6:	cf89                	beqz	a5,3800 <sbi_pmu_ctr_stop+0x3a>
    37e8:	340027f3          	csrr	a5,mscratch
    37ec:	84be                	mv	s1,a5
    37ee:	8726                	mv	a4,s1
    37f0:	00080797          	auipc	a5,0x80
    37f4:	a4078793          	addi	a5,a5,-1472 # 83230 <phs_ptr_offset>
    37f8:	639c                	ld	a5,0(a5)
    37fa:	97ba                	add	a5,a5,a4
    37fc:	639c                	ld	a5,0(a5)
    37fe:	a011                	j	3802 <sbi_pmu_ctr_stop+0x3c>
    3800:	4781                	li	a5,0
    3802:	fcf43823          	sd	a5,-48(s0)
    3806:	fd043783          	ld	a5,-48(s0)
    380a:	0017b793          	seqz	a5,a5
    380e:	0ff7f793          	zext.b	a5,a5
    3812:	c399                	beqz	a5,3818 <sbi_pmu_ctr_stop+0x52>
    3814:	57f5                	li	a5,-3
    3816:	a291                	j	395a <sbi_pmu_ctr_stop+0x194>
    3818:	57f5                	li	a5,-3
    381a:	fcf42e23          	sw	a5,-36(s0)
    381e:	fa043783          	ld	a5,-96(s0)
    3822:	853e                	mv	a0,a5
    3824:	eadfe0ef          	jal	26d0 <sbi_fls>
    3828:	872a                	mv	a4,a0
    382a:	fa843783          	ld	a5,-88(s0)
    382e:	973e                	add	a4,a4,a5
    3830:	00080797          	auipc	a5,0x80
    3834:	a2078793          	addi	a5,a5,-1504 # 83250 <total_ctrs>
    3838:	439c                	lw	a5,0(a5)
    383a:	1782                	slli	a5,a5,0x20
    383c:	9381                	srli	a5,a5,0x20
    383e:	00f76463          	bltu	a4,a5,3846 <sbi_pmu_ctr_stop+0x80>
    3842:	57f5                	li	a5,-3
    3844:	aa19                	j	395a <sbi_pmu_ctr_stop+0x194>
    3846:	f9843783          	ld	a5,-104(s0)
    384a:	8b89                	andi	a5,a5,2
    384c:	c399                	beqz	a5,3852 <sbi_pmu_ctr_stop+0x8c>
    384e:	57dd                	li	a5,-9
    3850:	a229                	j	395a <sbi_pmu_ctr_stop+0x194>
    3852:	fa040793          	addi	a5,s0,-96
    3856:	04000593          	li	a1,64
    385a:	853e                	mv	a0,a5
    385c:	3770c0ef          	jal	103d2 <find_first_bit>
    3860:	87aa                	mv	a5,a0
    3862:	fcf42c23          	sw	a5,-40(s0)
    3866:	a0e1                	j	392e <sbi_pmu_ctr_stop+0x168>
    3868:	fa843783          	ld	a5,-88(s0)
    386c:	0007871b          	sext.w	a4,a5
    3870:	fd842783          	lw	a5,-40(s0)
    3874:	9fb9                	addw	a5,a5,a4
    3876:	2781                	sext.w	a5,a5
    3878:	fcf42223          	sw	a5,-60(s0)
    387c:	fc442783          	lw	a5,-60(s0)
    3880:	fbc40713          	addi	a4,s0,-68
    3884:	863a                	mv	a2,a4
    3886:	85be                	mv	a1,a5
    3888:	fd043503          	ld	a0,-48(s0)
    388c:	b5aff0ef          	jal	2be6 <pmu_ctr_validate>
    3890:	87aa                	mv	a5,a0
    3892:	fcf42023          	sw	a5,-64(s0)
    3896:	fc042783          	lw	a5,-64(s0)
    389a:	2781                	sext.w	a5,a5
    389c:	0607c863          	bltz	a5,390c <sbi_pmu_ctr_stop+0x146>
    38a0:	fc042783          	lw	a5,-64(s0)
    38a4:	0007871b          	sext.w	a4,a5
    38a8:	47bd                	li	a5,15
    38aa:	02f71063          	bne	a4,a5,38ca <sbi_pmu_ctr_stop+0x104>
    38ae:	fc442783          	lw	a5,-60(s0)
    38b2:	fbc42703          	lw	a4,-68(s0)
    38b6:	863a                	mv	a2,a4
    38b8:	85be                	mv	a1,a5
    38ba:	fd043503          	ld	a0,-48(s0)
    38be:	dcfff0ef          	jal	368c <pmu_ctr_stop_fw>
    38c2:	87aa                	mv	a5,a0
    38c4:	fcf42e23          	sw	a5,-36(s0)
    38c8:	a809                	j	38da <sbi_pmu_ctr_stop+0x114>
    38ca:	fc442783          	lw	a5,-60(s0)
    38ce:	853e                	mv	a0,a5
    38d0:	ce5ff0ef          	jal	35b4 <pmu_ctr_stop_hw>
    38d4:	87aa                	mv	a5,a0
    38d6:	fcf42e23          	sw	a5,-36(s0)
    38da:	fc442783          	lw	a5,-60(s0)
    38de:	0007871b          	sext.w	a4,a5
    38e2:	4789                	li	a5,2
    38e4:	02e7d563          	bge	a5,a4,390e <sbi_pmu_ctr_stop+0x148>
    38e8:	f9843783          	ld	a5,-104(s0)
    38ec:	8b85                	andi	a5,a5,1
    38ee:	c385                	beqz	a5,390e <sbi_pmu_ctr_stop+0x148>
    38f0:	fd043703          	ld	a4,-48(s0)
    38f4:	fc442783          	lw	a5,-60(s0)
    38f8:	078a                	slli	a5,a5,0x2
    38fa:	97ba                	add	a5,a5,a4
    38fc:	577d                	li	a4,-1
    38fe:	c3d8                	sw	a4,4(a5)
    3900:	fc442783          	lw	a5,-60(s0)
    3904:	853e                	mv	a0,a5
    3906:	e75ff0ef          	jal	377a <pmu_reset_hw_mhpmevent>
    390a:	a011                	j	390e <sbi_pmu_ctr_stop+0x148>
    390c:	0001                	nop
    390e:	fd842783          	lw	a5,-40(s0)
    3912:	2785                	addiw	a5,a5,1
    3914:	2781                	sext.w	a5,a5
    3916:	873e                	mv	a4,a5
    3918:	fa040793          	addi	a5,s0,-96
    391c:	863a                	mv	a2,a4
    391e:	04000593          	li	a1,64
    3922:	853e                	mv	a0,a5
    3924:	4e10c0ef          	jal	10604 <find_next_bit>
    3928:	87aa                	mv	a5,a0
    392a:	fcf42c23          	sw	a5,-40(s0)
    392e:	fd842783          	lw	a5,-40(s0)
    3932:	0007871b          	sext.w	a4,a5
    3936:	03f00793          	li	a5,63
    393a:	f2e7d7e3          	bge	a5,a4,3868 <sbi_pmu_ctr_stop+0xa2>
    393e:	fd043783          	ld	a5,-48(s0)
    3942:	0d07a783          	lw	a5,208(a5)
    3946:	cb81                	beqz	a5,3956 <sbi_pmu_ctr_stop+0x190>
    3948:	6789                	lui	a5,0x2
    394a:	fcf43423          	sd	a5,-56(s0)
    394e:	fc843783          	ld	a5,-56(s0)
    3952:	3447b073          	csrc	mip,a5
    3956:	fdc42783          	lw	a5,-36(s0)
    395a:	853e                	mv	a0,a5
    395c:	70a6                	ld	ra,104(sp)
    395e:	7406                	ld	s0,96(sp)
    3960:	64e6                	ld	s1,88(sp)
    3962:	6165                	addi	sp,sp,112
    3964:	8082                	ret

0000000000003966 <pmu_update_inhibit_flags>:
    3966:	1101                	addi	sp,sp,-32
    3968:	ec22                	sd	s0,24(sp)
    396a:	1000                	addi	s0,sp,32
    396c:	fea43423          	sd	a0,-24(s0)
    3970:	feb43023          	sd	a1,-32(s0)
    3974:	fe843783          	ld	a5,-24(s0)
    3978:	8ba1                	andi	a5,a5,8
    397a:	cb91                	beqz	a5,398e <pmu_update_inhibit_flags+0x28>
    397c:	fe043783          	ld	a5,-32(s0)
    3980:	6398                	ld	a4,0(a5)
    3982:	4785                	li	a5,1
    3984:	17ea                	slli	a5,a5,0x3a
    3986:	8f5d                	or	a4,a4,a5
    3988:	fe043783          	ld	a5,-32(s0)
    398c:	e398                	sd	a4,0(a5)
    398e:	fe843783          	ld	a5,-24(s0)
    3992:	8bc1                	andi	a5,a5,16
    3994:	cb91                	beqz	a5,39a8 <pmu_update_inhibit_flags+0x42>
    3996:	fe043783          	ld	a5,-32(s0)
    399a:	6398                	ld	a4,0(a5)
    399c:	4785                	li	a5,1
    399e:	17ee                	slli	a5,a5,0x3b
    39a0:	8f5d                	or	a4,a4,a5
    39a2:	fe043783          	ld	a5,-32(s0)
    39a6:	e398                	sd	a4,0(a5)
    39a8:	fe843783          	ld	a5,-24(s0)
    39ac:	0207f793          	andi	a5,a5,32
    39b0:	cb91                	beqz	a5,39c4 <pmu_update_inhibit_flags+0x5e>
    39b2:	fe043783          	ld	a5,-32(s0)
    39b6:	6398                	ld	a4,0(a5)
    39b8:	4785                	li	a5,1
    39ba:	17f2                	slli	a5,a5,0x3c
    39bc:	8f5d                	or	a4,a4,a5
    39be:	fe043783          	ld	a5,-32(s0)
    39c2:	e398                	sd	a4,0(a5)
    39c4:	fe843783          	ld	a5,-24(s0)
    39c8:	0407f793          	andi	a5,a5,64
    39cc:	cb91                	beqz	a5,39e0 <pmu_update_inhibit_flags+0x7a>
    39ce:	fe043783          	ld	a5,-32(s0)
    39d2:	6398                	ld	a4,0(a5)
    39d4:	4785                	li	a5,1
    39d6:	17f6                	slli	a5,a5,0x3d
    39d8:	8f5d                	or	a4,a4,a5
    39da:	fe043783          	ld	a5,-32(s0)
    39de:	e398                	sd	a4,0(a5)
    39e0:	0001                	nop
    39e2:	6462                	ld	s0,24(sp)
    39e4:	6105                	addi	sp,sp,32
    39e6:	8082                	ret

00000000000039e8 <pmu_update_hw_mhpmevent>:
    39e8:	711d                	addi	sp,sp,-96
    39ea:	ec86                	sd	ra,88(sp)
    39ec:	e8a2                	sd	s0,80(sp)
    39ee:	1080                	addi	s0,sp,96
    39f0:	fca43423          	sd	a0,-56(s0)
    39f4:	87ae                	mv	a5,a1
    39f6:	fac43c23          	sd	a2,-72(s0)
    39fa:	fad43823          	sd	a3,-80(s0)
    39fe:	fae43423          	sd	a4,-88(s0)
    3a02:	fcf42223          	sw	a5,-60(s0)
    3a06:	340027f3          	csrr	a5,mscratch
    3a0a:	80be                	mv	ra,a5
    3a0c:	8786                	mv	a5,ra
    3a0e:	fef43423          	sd	a5,-24(s0)
    3a12:	fe843783          	ld	a5,-24(s0)
    3a16:	67bc                	ld	a5,72(a5)
    3a18:	fef43023          	sd	a5,-32(s0)
    3a1c:	fb043783          	ld	a5,-80(s0)
    3a20:	2781                	sext.w	a5,a5
    3a22:	fa843603          	ld	a2,-88(s0)
    3a26:	85be                	mv	a1,a5
    3a28:	fe043503          	ld	a0,-32(s0)
    3a2c:	f33fe0ef          	jal	295e <sbi_platform_pmu_xlate_to_mhpmevent>
    3a30:	87aa                	mv	a5,a0
    3a32:	fcf43c23          	sd	a5,-40(s0)
    3a36:	fd843783          	ld	a5,-40(s0)
    3a3a:	cf99                	beqz	a5,3a58 <pmu_update_hw_mhpmevent+0x70>
    3a3c:	fc442783          	lw	a5,-60(s0)
    3a40:	0007871b          	sext.w	a4,a5
    3a44:	4789                	li	a5,2
    3a46:	00e7d963          	bge	a5,a4,3a58 <pmu_update_hw_mhpmevent+0x70>
    3a4a:	fc442783          	lw	a5,-60(s0)
    3a4e:	0007871b          	sext.w	a4,a5
    3a52:	47fd                	li	a5,31
    3a54:	00e7d463          	bge	a5,a4,3a5c <pmu_update_hw_mhpmevent+0x74>
    3a58:	57fd                	li	a5,-1
    3a5a:	a865                	j	3b12 <pmu_update_hw_mhpmevent+0x12a>
    3a5c:	458d                	li	a1,3
    3a5e:	fe843503          	ld	a0,-24(s0)
    3a62:	04a120ef          	jal	15aac <sbi_hart_has_extension>
    3a66:	87aa                	mv	a5,a0
    3a68:	cb99                	beqz	a5,3a7e <pmu_update_hw_mhpmevent+0x96>
    3a6a:	fd843703          	ld	a4,-40(s0)
    3a6e:	57fd                	li	a5,-1
    3a70:	83a1                	srli	a5,a5,0x8
    3a72:	8f7d                	and	a4,a4,a5
    3a74:	57fd                	li	a5,-1
    3a76:	17fa                	slli	a5,a5,0x3e
    3a78:	8fd9                	or	a5,a5,a4
    3a7a:	fcf43c23          	sd	a5,-40(s0)
    3a7e:	0007f797          	auipc	a5,0x7f
    3a82:	7ba78793          	addi	a5,a5,1978 # 83238 <pmu_dev>
    3a86:	639c                	ld	a5,0(a5)
    3a88:	c395                	beqz	a5,3aac <pmu_update_hw_mhpmevent+0xc4>
    3a8a:	0007f797          	auipc	a5,0x7f
    3a8e:	7ae78793          	addi	a5,a5,1966 # 83238 <pmu_dev>
    3a92:	639c                	ld	a5,0(a5)
    3a94:	73bc                	ld	a5,96(a5)
    3a96:	cb99                	beqz	a5,3aac <pmu_update_hw_mhpmevent+0xc4>
    3a98:	0007f797          	auipc	a5,0x7f
    3a9c:	7a078793          	addi	a5,a5,1952 # 83238 <pmu_dev>
    3aa0:	639c                	ld	a5,0(a5)
    3aa2:	73bc                	ld	a5,96(a5)
    3aa4:	fc442703          	lw	a4,-60(s0)
    3aa8:	853a                	mv	a0,a4
    3aaa:	9782                	jalr	a5
    3aac:	458d                	li	a1,3
    3aae:	fe843503          	ld	a0,-24(s0)
    3ab2:	7fb110ef          	jal	15aac <sbi_hart_has_extension>
    3ab6:	87aa                	mv	a5,a0
    3ab8:	cb81                	beqz	a5,3ac8 <pmu_update_hw_mhpmevent+0xe0>
    3aba:	fd840793          	addi	a5,s0,-40
    3abe:	85be                	mv	a1,a5
    3ac0:	fb843503          	ld	a0,-72(s0)
    3ac4:	ea3ff0ef          	jal	3966 <pmu_update_inhibit_flags>
    3ac8:	0007f797          	auipc	a5,0x7f
    3acc:	77078793          	addi	a5,a5,1904 # 83238 <pmu_dev>
    3ad0:	639c                	ld	a5,0(a5)
    3ad2:	c785                	beqz	a5,3afa <pmu_update_hw_mhpmevent+0x112>
    3ad4:	0007f797          	auipc	a5,0x7f
    3ad8:	76478793          	addi	a5,a5,1892 # 83238 <pmu_dev>
    3adc:	639c                	ld	a5,0(a5)
    3ade:	7bbc                	ld	a5,112(a5)
    3ae0:	cf89                	beqz	a5,3afa <pmu_update_hw_mhpmevent+0x112>
    3ae2:	0007f797          	auipc	a5,0x7f
    3ae6:	75678793          	addi	a5,a5,1878 # 83238 <pmu_dev>
    3aea:	639c                	ld	a5,0(a5)
    3aec:	7bbc                	ld	a5,112(a5)
    3aee:	fc442703          	lw	a4,-60(s0)
    3af2:	85ba                	mv	a1,a4
    3af4:	fb843503          	ld	a0,-72(s0)
    3af8:	9782                	jalr	a5
    3afa:	fc442783          	lw	a5,-60(s0)
    3afe:	3207879b          	addiw	a5,a5,800
    3b02:	2781                	sext.w	a5,a5
    3b04:	fd843703          	ld	a4,-40(s0)
    3b08:	85ba                	mv	a1,a4
    3b0a:	853e                	mv	a0,a5
    3b0c:	7d60a0ef          	jal	e2e2 <csr_write_num>
    3b10:	4781                	li	a5,0
    3b12:	853e                	mv	a0,a5
    3b14:	60e6                	ld	ra,88(sp)
    3b16:	6446                	ld	s0,80(sp)
    3b18:	6125                	addi	sp,sp,96
    3b1a:	8082                	ret

0000000000003b1c <pmu_fixed_ctr_update_inhibit_bits>:
    3b1c:	7139                	addi	sp,sp,-64
    3b1e:	fc06                	sd	ra,56(sp)
    3b20:	f822                	sd	s0,48(sp)
    3b22:	0080                	addi	s0,sp,64
    3b24:	87aa                	mv	a5,a0
    3b26:	fcb43023          	sd	a1,-64(s0)
    3b2a:	fcf42623          	sw	a5,-52(s0)
    3b2e:	340027f3          	csrr	a5,mscratch
    3b32:	80be                	mv	ra,a5
    3b34:	8786                	mv	a5,ra
    3b36:	fef43023          	sd	a5,-32(s0)
    3b3a:	fc043c23          	sd	zero,-40(s0)
    3b3e:	45a1                	li	a1,8
    3b40:	fe043503          	ld	a0,-32(s0)
    3b44:	769110ef          	jal	15aac <sbi_hart_has_extension>
    3b48:	87aa                	mv	a5,a0
    3b4a:	e38d                	bnez	a5,3b6c <pmu_fixed_ctr_update_inhibit_bits+0x50>
    3b4c:	0007f797          	auipc	a5,0x7f
    3b50:	6ec78793          	addi	a5,a5,1772 # 83238 <pmu_dev>
    3b54:	639c                	ld	a5,0(a5)
    3b56:	cb81                	beqz	a5,3b66 <pmu_fixed_ctr_update_inhibit_bits+0x4a>
    3b58:	0007f797          	auipc	a5,0x7f
    3b5c:	6e078793          	addi	a5,a5,1760 # 83238 <pmu_dev>
    3b60:	639c                	ld	a5,0(a5)
    3b62:	7bbc                	ld	a5,112(a5)
    3b64:	e781                	bnez	a5,3b6c <pmu_fixed_ctr_update_inhibit_bits+0x50>
    3b66:	fcc42783          	lw	a5,-52(s0)
    3b6a:	a055                	j	3c0e <pmu_fixed_ctr_update_inhibit_bits+0xf2>
    3b6c:	fcc42783          	lw	a5,-52(s0)
    3b70:	2781                	sext.w	a5,a5
    3b72:	cb89                	beqz	a5,3b84 <pmu_fixed_ctr_update_inhibit_bits+0x68>
    3b74:	fcc42783          	lw	a5,-52(s0)
    3b78:	0007871b          	sext.w	a4,a5
    3b7c:	4789                	li	a5,2
    3b7e:	00f70863          	beq	a4,a5,3b8e <pmu_fixed_ctr_update_inhibit_bits+0x72>
    3b82:	a819                	j	3b98 <pmu_fixed_ctr_update_inhibit_bits+0x7c>
    3b84:	32100793          	li	a5,801
    3b88:	fef43423          	sd	a5,-24(s0)
    3b8c:	a801                	j	3b9c <pmu_fixed_ctr_update_inhibit_bits+0x80>
    3b8e:	32200793          	li	a5,802
    3b92:	fef43423          	sd	a5,-24(s0)
    3b96:	a019                	j	3b9c <pmu_fixed_ctr_update_inhibit_bits+0x80>
    3b98:	57fd                	li	a5,-1
    3b9a:	a895                	j	3c0e <pmu_fixed_ctr_update_inhibit_bits+0xf2>
    3b9c:	fd843703          	ld	a4,-40(s0)
    3ba0:	4785                	li	a5,1
    3ba2:	17fa                	slli	a5,a5,0x3e
    3ba4:	8fd9                	or	a5,a5,a4
    3ba6:	fcf43c23          	sd	a5,-40(s0)
    3baa:	45a1                	li	a1,8
    3bac:	fe043503          	ld	a0,-32(s0)
    3bb0:	6fd110ef          	jal	15aac <sbi_hart_has_extension>
    3bb4:	87aa                	mv	a5,a0
    3bb6:	c38d                	beqz	a5,3bd8 <pmu_fixed_ctr_update_inhibit_bits+0xbc>
    3bb8:	fd840793          	addi	a5,s0,-40
    3bbc:	85be                	mv	a1,a5
    3bbe:	fc043503          	ld	a0,-64(s0)
    3bc2:	da5ff0ef          	jal	3966 <pmu_update_inhibit_flags>
    3bc6:	fe843783          	ld	a5,-24(s0)
    3bca:	2781                	sext.w	a5,a5
    3bcc:	fd843703          	ld	a4,-40(s0)
    3bd0:	85ba                	mv	a1,a4
    3bd2:	853e                	mv	a0,a5
    3bd4:	70e0a0ef          	jal	e2e2 <csr_write_num>
    3bd8:	0007f797          	auipc	a5,0x7f
    3bdc:	66078793          	addi	a5,a5,1632 # 83238 <pmu_dev>
    3be0:	639c                	ld	a5,0(a5)
    3be2:	c785                	beqz	a5,3c0a <pmu_fixed_ctr_update_inhibit_bits+0xee>
    3be4:	0007f797          	auipc	a5,0x7f
    3be8:	65478793          	addi	a5,a5,1620 # 83238 <pmu_dev>
    3bec:	639c                	ld	a5,0(a5)
    3bee:	7bbc                	ld	a5,112(a5)
    3bf0:	cf89                	beqz	a5,3c0a <pmu_fixed_ctr_update_inhibit_bits+0xee>
    3bf2:	0007f797          	auipc	a5,0x7f
    3bf6:	64678793          	addi	a5,a5,1606 # 83238 <pmu_dev>
    3bfa:	639c                	ld	a5,0(a5)
    3bfc:	7bbc                	ld	a5,112(a5)
    3bfe:	fcc42703          	lw	a4,-52(s0)
    3c02:	85ba                	mv	a1,a4
    3c04:	fc043503          	ld	a0,-64(s0)
    3c08:	9782                	jalr	a5
    3c0a:	fcc42783          	lw	a5,-52(s0)
    3c0e:	853e                	mv	a0,a5
    3c10:	70e2                	ld	ra,56(sp)
    3c12:	7442                	ld	s0,48(sp)
    3c14:	6121                	addi	sp,sp,64
    3c16:	8082                	ret

0000000000003c18 <pmu_ctr_find_fixed_hw>:
    3c18:	1101                	addi	sp,sp,-32
    3c1a:	ec22                	sd	s0,24(sp)
    3c1c:	1000                	addi	s0,sp,32
    3c1e:	fea43423          	sd	a0,-24(s0)
    3c22:	fe843703          	ld	a4,-24(s0)
    3c26:	4785                	li	a5,1
    3c28:	00f71463          	bne	a4,a5,3c30 <pmu_ctr_find_fixed_hw+0x18>
    3c2c:	4781                	li	a5,0
    3c2e:	a809                	j	3c40 <pmu_ctr_find_fixed_hw+0x28>
    3c30:	fe843703          	ld	a4,-24(s0)
    3c34:	4789                	li	a5,2
    3c36:	00f71463          	bne	a4,a5,3c3e <pmu_ctr_find_fixed_hw+0x26>
    3c3a:	4789                	li	a5,2
    3c3c:	a011                	j	3c40 <pmu_ctr_find_fixed_hw+0x28>
    3c3e:	57f5                	li	a5,-3
    3c40:	853e                	mv	a0,a5
    3c42:	6462                	ld	s0,24(sp)
    3c44:	6105                	addi	sp,sp,32
    3c46:	8082                	ret

0000000000003c48 <pmu_ctr_find_hw>:
    3c48:	7175                	addi	sp,sp,-144
    3c4a:	e506                	sd	ra,136(sp)
    3c4c:	e122                	sd	s0,128(sp)
